CCS PCH C Compiler, Version 5.015, 5967               14-Apr-16 14:59

               Filename:   E:\embedded system\pic\project\lcdpic18f4550\main.lst

               ROM used:   6070 bytes (19%)
                           Largest free fragment is 26698
               RAM used:   13 (1%) at main() level
                           18 (1%) worst case
               Stack used: 6 locations
               Stack size: 31

*
0000:  GOTO   152E
.................... #include <main.h> 
.................... #include <18F4550.h> 
.................... //////////// Standard Header file for the PIC18F4550 device //////////////// 
.................... /////////////////////////////////////////////////////////////////////////// 
.................... ////        (C) Copyright 1996, 2013 Custom Computer Services          //// 
.................... //// This source code may only be used by licensed users of the CCS C  //// 
.................... //// compiler.  This source code may only be distributed to other      //// 
.................... //// licensed users of the CCS C compiler.  No other use, reproduction //// 
.................... //// or distribution is permitted without written permission.          //// 
.................... //// Derivative programs created using this software in object code    //// 
.................... //// form are not restricted in any way.                               //// 
.................... /////////////////////////////////////////////////////////////////////////// 
.................... #device PIC18F4550 
0004:  CLRF   FF7
0006:  ADDLW  14
0008:  MOVWF  FF6
000A:  MOVLW  00
000C:  ADDWFC FF7,F
000E:  TBLRD*+
0010:  MOVF   FF5,W
0012:  RETURN 0
0014:  DATA 00,00
0016:  DATA 00,00
0018:  DATA 00,00
001A:  DATA 00,5F
001C:  DATA 00,00
001E:  DATA 00,07
0020:  DATA 00,07
0022:  DATA 00,14
0024:  DATA 7F,14
0026:  DATA 7F,14
0028:  DATA 24,2A
002A:  DATA 7F,2A
002C:  DATA 12,23
002E:  DATA 13,08
0030:  DATA 64,62
0032:  DATA 36,49
0034:  DATA 55,22
0036:  DATA 50,00
0038:  DATA 05,03
003A:  DATA 00,00
003C:  DATA 00,1C
003E:  DATA 22,41
0040:  DATA 00,00
0042:  DATA 41,22
0044:  DATA 1C,00
0046:  DATA 14,08
0048:  DATA 3E,08
004A:  DATA 14,08
004C:  DATA 08,3E
004E:  DATA 08,08
0050:  DATA 00,50
0052:  DATA 30,00
0054:  DATA 00,08
0056:  DATA 08,08
0058:  DATA 08,08
005A:  DATA 00,60
005C:  DATA 60,00
005E:  DATA 00,20
0060:  DATA 10,08
0062:  DATA 04,02
0064:  DATA 3E,51
0066:  DATA 49,45
0068:  DATA 3E,00
006A:  DATA 42,7F
006C:  DATA 40,00
006E:  DATA 42,61
0070:  DATA 51,49
0072:  DATA 46,21
0074:  DATA 41,45
0076:  DATA 4B,31
0078:  DATA 18,14
007A:  DATA 12,7F
007C:  DATA 10,27
007E:  DATA 45,45
0080:  DATA 45,39
0082:  DATA 3C,4A
0084:  DATA 49,49
0086:  DATA 30,01
0088:  DATA 71,09
008A:  DATA 05,03
008C:  DATA 36,49
008E:  DATA 49,49
0090:  DATA 36,06
0092:  DATA 49,49
0094:  DATA 29,1E
0096:  DATA 00,36
0098:  DATA 36,00
009A:  DATA 00,00
009C:  DATA 56,36
009E:  DATA 00,00
00A0:  DATA 08,14
00A2:  DATA 22,41
00A4:  DATA 00,14
00A6:  DATA 14,14
00A8:  DATA 14,14
00AA:  DATA 00,41
00AC:  DATA 22,14
00AE:  DATA 08,02
00B0:  DATA 01,51
00B2:  DATA 09,06
00B4:  DATA 32,49
00B6:  DATA 79,41
00B8:  DATA 3E,7E
00BA:  DATA 11,11
00BC:  DATA 11,7E
00BE:  DATA 7F,49
00C0:  DATA 49,49
00C2:  DATA 36,3E
00C4:  DATA 41,41
00C6:  DATA 41,22
00C8:  DATA 7F,41
00CA:  DATA 41,22
00CC:  DATA 1C,7F
00CE:  DATA 49,49
00D0:  DATA 49,41
00D2:  DATA 7F,09
00D4:  DATA 09,09
00D6:  DATA 01,3E
00D8:  DATA 41,49
00DA:  DATA 49,7A
00DC:  DATA 7F,08
00DE:  DATA 08,08
00E0:  DATA 7F,00
00E2:  DATA 41,7F
00E4:  DATA 41,00
00E6:  DATA 20,40
00E8:  DATA 41,3F
00EA:  DATA 01,7F
00EC:  DATA 08,14
00EE:  DATA 22,41
00F0:  DATA 7F,40
00F2:  DATA 40,40
00F4:  DATA 40,7F
00F6:  DATA 02,0C
00F8:  DATA 02,7F
00FA:  DATA 7F,04
00FC:  DATA 08,10
00FE:  DATA 7F,3E
0100:  DATA 41,41
0102:  DATA 41,3E
0104:  CLRF   FF7
0106:  ADDLW  14
0108:  MOVWF  FF6
010A:  MOVLW  01
010C:  ADDWFC FF7,F
010E:  TBLRD*+
0110:  MOVF   FF5,W
0112:  RETURN 0
0114:  DATA 7F,09
0116:  DATA 09,09
0118:  DATA 06,3E
011A:  DATA 41,51
011C:  DATA 21,5E
011E:  DATA 7F,09
0120:  DATA 19,29
0122:  DATA 46,46
0124:  DATA 49,49
0126:  DATA 49,31
0128:  DATA 01,01
012A:  DATA 7F,01
012C:  DATA 01,3F
012E:  DATA 40,40
0130:  DATA 40,3F
0132:  DATA 1F,20
0134:  DATA 40,20
0136:  DATA 1F,3F
0138:  DATA 40,38
013A:  DATA 40,3F
013C:  DATA 63,14
013E:  DATA 08,14
0140:  DATA 63,07
0142:  DATA 08,70
0144:  DATA 08,07
0146:  DATA 61,51
0148:  DATA 49,45
014A:  DATA 43,00
014C:  DATA 7F,41
014E:  DATA 41,00
0150:  DATA 02,04
0152:  DATA 08,10
0154:  DATA 20,00
0156:  DATA 41,41
0158:  DATA 7F,00
015A:  DATA 04,02
015C:  DATA 01,02
015E:  DATA 04,40
0160:  DATA 40,40
0162:  DATA 40,40
0164:  DATA 00,01
0166:  DATA 02,04
0168:  DATA 00,20
016A:  DATA 54,54
016C:  DATA 54,78
016E:  DATA 7F,48
0170:  DATA 44,44
0172:  DATA 38,38
0174:  DATA 44,44
0176:  DATA 44,20
0178:  DATA 38,44
017A:  DATA 44,48
017C:  DATA 7F,38
017E:  DATA 54,54
0180:  DATA 54,18
0182:  DATA 08,7E
0184:  DATA 09,01
0186:  DATA 02,0C
0188:  DATA 52,52
018A:  DATA 52,3E
018C:  DATA 7F,08
018E:  DATA 04,04
0190:  DATA 78,00
0192:  DATA 44,7D
0194:  DATA 40,00
0196:  DATA 20,40
0198:  DATA 44,3D
019A:  DATA 00,7F
019C:  DATA 10,28
019E:  DATA 44,00
01A0:  DATA 00,41
01A2:  DATA 7F,40
01A4:  DATA 00,7C
01A6:  DATA 04,18
01A8:  DATA 04,78
01AA:  DATA 7C,08
01AC:  DATA 04,04
01AE:  DATA 78,38
01B0:  DATA 44,44
01B2:  DATA 44,38
01B4:  DATA 7C,14
01B6:  DATA 14,14
01B8:  DATA 08,08
01BA:  DATA 14,14
01BC:  DATA 18,7C
01BE:  DATA 7C,08
01C0:  DATA 04,04
01C2:  DATA 08,48
01C4:  DATA 54,54
01C6:  DATA 54,20
01C8:  DATA 04,3F
01CA:  DATA 44,40
01CC:  DATA 20,3C
01CE:  DATA 40,40
01D0:  DATA 20,7C
01D2:  DATA 1C,20
01D4:  DATA 40,20
01D6:  DATA 1C,3C
01D8:  DATA 40,30
01DA:  DATA 40,3C
01DC:  DATA 44,28
01DE:  DATA 10,28
01E0:  DATA 44,0C
01E2:  DATA 50,50
01E4:  DATA 50,3C
01E6:  DATA 44,64
01E8:  DATA 54,4C
01EA:  DATA 44,00
01EC:  DATA 08,36
01EE:  DATA 41,00
01F0:  DATA 00,00
01F2:  DATA 7F,00
01F4:  DATA 00,00
01F6:  DATA 41,36
01F8:  DATA 08,00
01FA:  DATA 10,08
01FC:  DATA 08,10
01FE:  DATA 08,78
0200:  DATA 46,41
0202:  DATA 46,78
0204:  ADDLW  12
0206:  MOVWF  FF6
0208:  MOVLW  02
020A:  ADDWFC FF7,F
020C:  TBLRD*+
020E:  MOVF   FF5,W
0210:  RETURN 0
0212:  DATA 00,00
0214:  DATA 00,00
0216:  DATA 00,00
0218:  DATA 00,00
021A:  DATA 00,00
021C:  DATA 00,00
021E:  DATA 00,00
0220:  DATA 00,00
0222:  DATA 00,00
0224:  DATA 00,00
0226:  DATA 00,00
0228:  DATA 00,0F
022A:  DATA 08,00
022C:  DATA 00,00
022E:  DATA 00,00
0230:  DATA 00,00
0232:  DATA 00,00
0234:  DATA 00,00
0236:  DATA 00,00
0238:  DATA 00,00
023A:  DATA 00,FF
023C:  DATA FF,FF
023E:  DATA FF,FF
0240:  DATA FF,FF
0242:  DATA FF,0F
0244:  DATA 03,03
0246:  DATA 23,E3
0248:  DATA 83,03
024A:  DATA 33,E7
024C:  DATA F7,E7
024E:  DATA CF,9F
0250:  DATA FF,FF
0252:  DATA FF,FF
0254:  DATA FF,FF
0256:  DATA FF,FF
0258:  DATA FF,FF
025A:  DATA FF,FF
025C:  DATA FF,FF
025E:  DATA FF,FF
0260:  DATA FF,FF
0262:  DATA FF,FF
0264:  DATA FF,FF
0266:  DATA 00,00
0268:  DATA 00,00
026A:  DATA 00,00
026C:  DATA 00,00
026E:  DATA 00,00
0270:  DATA 00,00
0272:  DATA 00,00
0274:  DATA 00,00
0276:  DATA 01,03
0278:  DATA 82,C6
027A:  DATA 66,66
027C:  DATA 32,10
027E:  DATA 00,00
0280:  DATA 00,00
0282:  DATA F8,FC
0284:  DATA FC,FC
0286:  DATA FC,FC
0288:  DATA FC,FC
028A:  DATA FC,FC
028C:  DATA 7C,BC
028E:  DATA FC,A7
0290:  DATA A7,47
0292:  DATA 43,43
0294:  DATA 03,03
0296:  DATA 03,FF
0298:  DATA C0,00
029A:  DATA 00,FF
029C:  DATA FF,FF
029E:  DATA FC,FF
02A0:  DATA FF,FF
02A2:  DATA FF,FF
02A4:  DATA FF,FF
02A6:  DATA FF,FF
02A8:  DATA FF,FF
02AA:  DATA FF,FF
02AC:  DATA FF,FF
02AE:  DATA FF,FF
02B0:  DATA FF,FF
02B2:  DATA FF,FF
02B4:  DATA FF,FF
02B6:  DATA FF,FF
02B8:  DATA FF,FF
02BA:  DATA 00,00
02BC:  DATA 00,00
02BE:  DATA 00,00
02C0:  DATA 00,00
02C2:  DATA 00,00
02C4:  DATA 00,00
02C6:  DATA 00,00
02C8:  DATA 00,00
02CA:  DATA 00,00
02CC:  DATA 00,00
02CE:  DATA 00,E0
02D0:  DATA E0,E0
02D2:  DATA 00,C0
02D4:  DATA C0,C0
02D6:  DATA BF,FF
02D8:  DATA BF,FF
02DA:  DATA 7F,FF
02DC:  DATA FF,FF
02DE:  DATA 63,7C
02E0:  DATA 73,6F
02E2:  DATA 7A,84
02E4:  DATA 86,90
02E6:  DATA 8F,80
02E8:  DATA 80,80
02EA:  DATA C0,FF
02EC:  DATA FF,58
02EE:  DATA 40,41
02F0:  DATA FF,FF
02F2:  DATA FF,FF
02F4:  DATA FF,FF
02F6:  DATA FF,FF
02F8:  DATA FF,FF
02FA:  DATA FF,FF
02FC:  DATA FF,FF
02FE:  DATA FF,FF
0300:  DATA FF,FF
0302:  DATA FF,FF
0304:  DATA FF,FF
0306:  DATA FF,FF
0308:  DATA FF,FF
030A:  DATA FF,FF
030C:  DATA FF,FF
030E:  DATA 00,00
0310:  DATA 00,00
0312:  DATA 00,00
0314:  DATA 00,00
0316:  DATA 00,00
0318:  DATA 00,00
031A:  DATA 00,00
031C:  DATA 00,00
031E:  DATA 00,00
0320:  DATA 00,00
0322:  DATA 00,0F
0324:  DATA 3F,7F
0326:  DATA FF,FF
0328:  DATA FF,FF
032A:  DATA FD,FD
032C:  DATA FD,F1
032E:  DATA F1,F0
0330:  DATA FD,FD
0332:  DATA FF,FF
0334:  DATA FF,FF
0336:  DATA FF,F8
0338:  DATA 00,00
033A:  DATA 00,31
033C:  DATA 73,F2
033E:  DATA F2,73
0340:  DATA 32,02
0342:  DATA 02,01
0344:  DATA FF,FF
0346:  DATA FF,FF
0348:  DATA FF,FF
034A:  DATA FF,FF
034C:  DATA FF,FF
034E:  DATA FF,FF
0350:  DATA FF,FF
0352:  DATA FF,FF
0354:  DATA FF,FF
0356:  DATA FF,FF
0358:  DATA FF,FF
035A:  DATA FF,FF
035C:  DATA FF,FF
035E:  DATA FF,FF
0360:  DATA FF,FF
0362:  DATA 00,00
0364:  DATA 00,00
0366:  DATA 00,00
0368:  DATA 00,00
036A:  DATA 00,00
036C:  DATA 00,00
036E:  DATA 00,00
0370:  DATA 00,00
0372:  DATA 00,00
0374:  DATA 00,00
0376:  DATA 00,00
0378:  DATA 00,00
037A:  DATA 01,01
037C:  DATA 03,1F
037E:  DATA 3F,7F
0380:  DATA FF,FF
0382:  DATA FF,FF
0384:  DATA FF,FF
0386:  DATA BF,BF
0388:  DATA BF,FF
038A:  DATA E7,C7
038C:  DATA 80,00
038E:  DATA 00,00
0390:  DATA 00,00
0392:  DATA 00,00
0394:  DATA 80,C0
0396:  DATA E0,F8
0398:  DATA FF,FF
039A:  DATA FF,FF
039C:  DATA FF,FF
039E:  DATA FF,FF
03A0:  DATA FF,FF
03A2:  DATA FF,FF
03A4:  DATA FF,FF
03A6:  DATA FF,FF
03A8:  DATA FF,FF
03AA:  DATA FF,FF
03AC:  DATA FF,FF
03AE:  DATA FF,FF
03B0:  DATA FF,FF
03B2:  DATA FF,FF
03B4:  DATA FF,FF
03B6:  DATA 00,00
03B8:  DATA 00,00
03BA:  DATA 00,00
03BC:  DATA 00,00
03BE:  DATA 00,00
03C0:  DATA 00,00
03C2:  DATA 00,00
03C4:  DATA 00,00
03C6:  DATA 00,00
03C8:  DATA 00,00
03CA:  DATA 00,00
03CC:  DATA 00,00
03CE:  DATA 00,00
03D0:  DATA 00,00
03D2:  DATA 00,00
03D4:  DATA C0,E1
03D6:  DATA FB,F7
03D8:  DATA F7,EF
03DA:  DATA FF,DF
03DC:  DATA DF,DE
03DE:  DATA DE,2C
03E0:  DATA 20,30
03E2:  DATA 10,18
03E4:  DATA 0C,04
03E6:  DATA 06,03
03E8:  DATA F9,FF
03EA:  DATA FF,FF
03EC:  DATA FF,FF
03EE:  DATA FF,FF
03F0:  DATA FF,FF
03F2:  DATA FF,FF
03F4:  DATA FF,FF
03F6:  DATA FF,FF
03F8:  DATA FF,FF
03FA:  DATA FF,FF
03FC:  DATA FF,FF
03FE:  DATA FF,FF
0400:  DATA FF,FF
0402:  DATA FF,FF
0404:  DATA FF,FF
0406:  DATA FF,FF
0408:  DATA FF,FF
040A:  ADDLW  18
040C:  MOVWF  FF6
040E:  MOVLW  04
0410:  ADDWFC FF7,F
0412:  TBLRD*+
0414:  MOVF   FF5,W
0416:  RETURN 0
0418:  DATA FF,FF
041A:  DATA FF,FF
041C:  DATA FF,FF
041E:  DATA FF,FF
0420:  DATA FF,FF
0422:  DATA FF,7F
0424:  DATA 3F,1F
0426:  DATA 1F,1F
0428:  DATA 1F,3F
042A:  DATA 1F,1F
042C:  DATA BF,FF
042E:  DATA FF,FF
0430:  DATA FF,FF
0432:  DATA FF,FF
0434:  DATA FF,FF
0436:  DATA FF,FB
0438:  DATA FF,FF
043A:  DATA FF,FF
043C:  DATA FF,FF
043E:  DATA FF,FF
0440:  DATA FF,FF
0442:  DATA FF,FF
0444:  DATA FF,FF
0446:  DATA FF,FF
0448:  DATA FF,FF
044A:  DATA 1F,1F
044C:  DATA 1F,1F
044E:  DATA 1F,3F
0450:  DATA 7F,FF
0452:  DATA FF,FF
0454:  DATA FF,FF
0456:  DATA FF,FF
0458:  DATA FF,FF
045A:  DATA FF,FF
045C:  DATA FF,FF
045E:  DATA FF,1F
0460:  DATA 1F,1F
0462:  DATA FF,FF
0464:  DATA FF,FF
0466:  DATA FF,FF
0468:  DATA FF,FF
046A:  DATA FF,FF
046C:  DATA FF,FF
046E:  DATA FF,FF
0470:  DATA FF,FF
0472:  DATA FF,FF
0474:  DATA FF,FF
0476:  DATA FF,00
0478:  DATA 00,00
047A:  DATA C1,C1
047C:  DATA C1,00
047E:  DATA 00,00
0480:  DATA FF,03
0482:  DATA 01,01
0484:  DATA 71,01
0486:  DATA 01,01
0488:  DATA 01,01
048A:  DATA 01,71
048C:  DATA 01,03
048E:  DATA 03,01
0490:  DATA 01,01
0492:  DATA 71,01
0494:  DATA 03,03
0496:  DATA FF,00
0498:  DATA 00,00
049A:  DATA 00,00
049C:  DATA 00,FF
049E:  DATA 00,00
04A0:  DATA 00,00
04A2:  DATA 00,00
04A4:  DATA FF,08
04A6:  DATA 08,08
04A8:  DATA FF,03
04AA:  DATA 01,01
04AC:  DATA F1,F1
04AE:  DATA F1,03
04B0:  DATA 01,01
04B2:  DATA 71,00
04B4:  DATA 00,00
04B6:  DATA FF,FF
04B8:  DATA FF,FF
04BA:  DATA FF,FF
04BC:  DATA FF,FF
04BE:  DATA FF,FF
04C0:  DATA FF,FF
04C2:  DATA FF,FF
04C4:  DATA FF,FF
04C6:  DATA FF,FF
04C8:  DATA FF,FF
04CA:  DATA FF,F8
04CC:  DATA F8,F8
04CE:  DATA FF,FF
04D0:  DATA FF,FC
04D2:  DATA F8,F8
04D4:  DATA FD,FE
04D6:  DATA FC,F8
04D8:  DATA F8,F8
04DA:  DATA F8,FC
04DC:  DATA E0,C0
04DE:  DATA C0,F8
04E0:  DATA F8,FC
04E2:  DATA FE,E0
04E4:  DATA C0,C0
04E6:  DATA E0,F8
04E8:  DATA FC,FE
04EA:  DATA FF,FF
04EC:  DATA FE,C2
04EE:  DATA C0,E0
04F0:  DATA F0,FF
04F2:  DATA F8,F8
04F4:  DATA F8,F8
04F6:  DATA F8,FC
04F8:  DATA FF,F8
04FA:  DATA F8,F8
04FC:  DATA FF,F8
04FE:  DATA F8,F8
0500:  DATA FF,FF
0502:  DATA FF,FE
0504:  DATA FC,F8
0506:  DATA F8,F8
0508:  DATA F8,F8
050A:  DATA FF,FF
050C:  DATA FF,FF
050E:  DATA FF,FF
0510:  DATA FF,FF
0512:  DATA FF,FF
0514:  DATA FF,FF
0516:  DATA FF,FF
0518:  DATA FF,FF
051A:  DATA FF,FF
051C:  DATA FF,FF
051E:  DATA FF,FF
0520:  DATA FF,FF
0522:  DATA FF,FF
0524:  DATA FF,FF
0526:  DATA FF,FF
0528:  DATA FF,FF
052A:  DATA FF,FF
052C:  DATA FF,FF
052E:  DATA FF,FF
0530:  DATA FF,FF
0532:  DATA FF,FF
0534:  DATA FF,FF
0536:  DATA FF,FF
0538:  DATA FF,FF
053A:  DATA FF,7F
053C:  DATA 3F,3F
053E:  DATA 7F,3F
0540:  DATA 7F,FF
0542:  DATA FF,FF
0544:  DATA FF,FF
0546:  DATA FF,FF
0548:  DATA FF,FF
054A:  DATA FF,FF
054C:  DATA FF,FF
054E:  DATA FF,FF
0550:  DATA FF,FF
0552:  DATA FF,FF
0554:  DATA FF,FF
0556:  DATA FF,FF
0558:  DATA FF,FF
055A:  DATA FF,FF
055C:  DATA FF,FF
055E:  DATA FF,FF
0560:  DATA FF,FF
0562:  DATA FF,FF
0564:  DATA FF,FF
0566:  DATA FF,FF
0568:  DATA FF,FF
056A:  DATA FF,FF
056C:  DATA FF,FF
056E:  DATA FF,FF
0570:  DATA FF,FF
0572:  DATA FF,FF
0574:  DATA FF,FF
0576:  DATA FF,FF
0578:  DATA FF,FF
057A:  DATA FF,FF
057C:  DATA FF,FF
057E:  DATA FF,FF
0580:  DATA FF,FF
0582:  DATA FF,FF
0584:  DATA FF,FF
0586:  DATA FF,FF
0588:  DATA FF,FF
058A:  DATA FF,FF
058C:  DATA FD,F8
058E:  DATA C8,C9
0590:  DATA C6,C0
0592:  DATA BA,FC
0594:  DATA FD,FC
0596:  DATA FF,FF
0598:  DATA FF,FF
059A:  DATA FF,FF
059C:  DATA FF,FF
059E:  DATA FF,FF
05A0:  DATA FF,FF
05A2:  DATA FF,FF
05A4:  DATA FF,FF
05A6:  DATA FF,FF
05A8:  DATA FF,FF
05AA:  DATA FF,FF
05AC:  DATA FF,FF
05AE:  DATA FF,FF
05B0:  DATA FF,FF
05B2:  DATA FF,FF
05B4:  DATA FF,FF
05B6:  DATA FF,FF
05B8:  DATA FF,FF
05BA:  DATA FF,FF
05BC:  DATA FF,FF
05BE:  DATA FF,FF
05C0:  DATA FF,FF
05C2:  DATA FF,FF
05C4:  DATA FF,FF
05C6:  DATA FF,FF
05C8:  DATA FF,FF
05CA:  DATA FF,FF
05CC:  DATA FF,FF
05CE:  DATA FF,FF
05D0:  DATA FF,FF
05D2:  DATA FF,FF
05D4:  DATA FF,FF
05D6:  DATA FF,FF
05D8:  DATA FF,FF
05DA:  DATA FF,FF
05DC:  DATA FF,FF
05DE:  DATA FF,FF
05E0:  DATA FF,FF
05E2:  DATA FF,FF
05E4:  DATA FF,FF
05E6:  DATA FF,FF
05E8:  DATA FF,FF
05EA:  DATA FF,FF
05EC:  DATA FF,FF
05EE:  DATA FF,FF
05F0:  DATA FF,FF
05F2:  DATA FF,FF
05F4:  DATA FF,FF
05F6:  DATA FF,FF
05F8:  DATA FF,FF
05FA:  DATA FF,FF
05FC:  DATA FF,FF
05FE:  DATA FF,FF
0600:  DATA FF,FF
0602:  DATA FF,FF
0604:  DATA FF,FF
0606:  DATA FF,FF
0608:  DATA FF,FF
060A:  DATA FF,FF
060C:  DATA FF,FF
060E:  DATA FF,FF
0610:  ADDLW  1E
0612:  MOVWF  FF6
0614:  MOVLW  06
0616:  ADDWFC FF7,F
0618:  TBLRD*+
061A:  MOVF   FF5,W
061C:  RETURN 0
061E:  DATA FF,FF
0620:  DATA FF,FF
0622:  DATA FF,FF
0624:  DATA FF,FF
0626:  DATA FF,FF
0628:  DATA FF,FF
062A:  DATA FF,FF
062C:  DATA FF,FF
062E:  DATA FF,FF
0630:  DATA FF,FF
0632:  DATA FF,FF
0634:  DATA FF,FF
0636:  DATA FF,FF
0638:  DATA FF,FF
063A:  DATA FF,FF
063C:  DATA FF,FF
063E:  DATA FF,FF
0640:  DATA FF,FF
0642:  DATA FF,FF
0644:  DATA FF,FF
0646:  DATA FF,FF
0648:  DATA FF,FF
064A:  DATA FF,FF
064C:  DATA FF,FF
064E:  DATA FF,FF
0650:  DATA FF,FF
0652:  DATA FF,FF
0654:  DATA FF,FF
0656:  DATA FF,FF
0658:  DATA FF,FF
065A:  DATA FF,FF
065C:  DATA FF,FF
065E:  DATA FF,FF
0660:  DATA FF,FF
0662:  DATA FF,FF
0664:  DATA FF,FF
0666:  DATA FF,FF
0668:  DATA FF,FF
066A:  DATA FF,FF
066C:  DATA FF,FF
066E:  DATA FF,FF
0670:  DATA FF,FF
0672:  DATA FF,FF
0674:  DATA FF,FF
0676:  DATA FF,FF
0678:  DATA FF,FF
067A:  DATA FF,FF
067C:  DATA FF,FF
067E:  DATA FF,FF
0680:  DATA FF,FF
0682:  DATA FF,FF
0684:  DATA FF,FF
0686:  DATA FF,81
0688:  DATA 81,F5
068A:  DATA F5,FF
068C:  DATA 81,FF
068E:  DATA 87,B7
0690:  DATA 87,87
0692:  DATA FF,07
0694:  DATA B7,87
0696:  DATA CF,FF
0698:  DATA 07,B7
069A:  DATA 87,FF
069C:  DATA C3,C3
069E:  DATA 1F,03
06A0:  DATA FF,81
06A2:  DATA 81,A5
06A4:  DATA 81,FF
06A6:  DATA 8B,FF
06A8:  DATA 87,87
06AA:  DATA F7,F7
06AC:  DATA FF,87
06AE:  DATA B7,81
06B0:  DATA FF,FF
06B2:  DATA FF,FF
06B4:  DATA FF,FF
06B6:  DATA FF,FF
06B8:  DATA FF,FF
06BA:  DATA FF,FF
06BC:  DATA FF,FF
06BE:  DATA FF,FF
06C0:  DATA FF,FF
06C2:  DATA FF,FF
06C4:  DATA FF,FF
06C6:  DATA FF,FF
06C8:  DATA FF,FF
06CA:  DATA FF,FF
06CC:  DATA FF,FF
06CE:  DATA FF,FF
06D0:  DATA FF,FF
06D2:  DATA FF,FF
06D4:  DATA FF,FF
06D6:  DATA FF,FF
06D8:  DATA FF,FF
06DA:  DATA FF,FF
06DC:  DATA FF,FF
06DE:  DATA FF,FF
06E0:  DATA FF,FF
06E2:  DATA FF,FF
06E4:  DATA FF,FF
06E6:  DATA FF,FE
06E8:  DATA FF,FF
06EA:  DATA FF,FE
06EC:  DATA FE,FF
06EE:  DATA BF,FF
06F0:  DATA BF,FF
06F2:  DATA FE,FE
06F4:  DATA FF,FF
06F6:  DATA FF,FF
06F8:  DATA FF,FF
06FA:  DATA FF,FF
06FC:  DATA FF,FF
06FE:  DATA FF,FF
0700:  DATA FF,FF
0702:  DATA FF,FF
0704:  DATA FF,FF
0706:  DATA FF,FF
0708:  DATA FF,FF
070A:  DATA FF,FF
070C:  DATA FF,FF
070E:  DATA FF,FF
0710:  DATA FF,FF
0712:  DATA FF,FF
0714:  DATA FF,FF
0716:  DATA FF,FF
0718:  DATA FF,FF
071A:  DATA FF,FF
071C:  DATA FF,FF
071E:  DATA FF,FF
0720:  DATA FF,FF
0722:  DATA FF,FF
0724:  DATA FF,FF
0726:  DATA FF,FF
0728:  DATA FF,FF
072A:  DATA FF,FF
072C:  DATA FF,FF
072E:  DATA FF,FF
0730:  DATA FF,FF
0732:  DATA FF,FF
0734:  DATA FF,FF
0736:  DATA FF,FF
0738:  DATA FF,FF
073A:  DATA 7F,FF
073C:  DATA FF,FF
073E:  DATA FF,FF
0740:  DATA FF,FF
0742:  DATA FF,FF
0744:  DATA FF,FF
0746:  DATA FF,FF
0748:  DATA FF,FF
074A:  DATA FF,FF
074C:  DATA FF,FF
074E:  DATA FF,FF
0750:  DATA FF,FF
0752:  DATA FF,FF
0754:  DATA FF,FF
0756:  DATA FF,FF
0758:  DATA FF,FF
075A:  DATA FF,FF
075C:  DATA FF,FF
075E:  DATA FF,FF
0760:  DATA FF,FF
0762:  DATA FF,FF
0764:  DATA FF,FF
0766:  DATA FF,FF
0768:  DATA FF,FF
076A:  DATA FF,FF
076C:  DATA FF,FF
076E:  DATA C1,E0
0770:  DATA E0,E0
0772:  DATA E1,C1
0774:  DATA E1,E3
0776:  DATA E1,C1
0778:  DATA E1,E1
077A:  DATA E0,E0
077C:  DATA E0,E1
077E:  DATA E1,E1
0780:  DATA E1,E1
0782:  DATA E0,E0
0784:  DATA E1,E1
0786:  DATA E0,E0
0788:  DATA E0,E0
078A:  DATA E0,E0
078C:  DATA E0,E0
078E:  DATA E0,E0
0790:  DATA E0,E0
0792:  DATA E0,E1
0794:  DATA E1,E0
0796:  DATA E1,E1
0798:  DATA E1,E3
079A:  DATA E3,E3
079C:  DATA E3,C1
079E:  DATA E1,E1
07A0:  DATA E3,E1
07A2:  DATA C1,C1
07A4:  DATA E1,E1
07A6:  DATA C1,E1
07A8:  DATA E0,E0
07AA:  DATA E1,C1
07AC:  DATA E1,E3
07AE:  DATA E1,C1
07B0:  DATA E1,E1
07B2:  DATA E0,E0
07B4:  DATA E0,E1
07B6:  DATA E1,E1
07B8:  DATA E1,E1
07BA:  DATA E0,E0
07BC:  DATA E1,E1
07BE:  DATA E0,E0
07C0:  DATA E0,E0
07C2:  DATA 03,03
07C4:  DATA 03,03
07C6:  DATA 03,03
07C8:  DATA 03,03
07CA:  DATA 03,03
07CC:  DATA 03,03
07CE:  DATA 03,03
07D0:  DATA 03,03
07D2:  DATA 03,03
07D4:  DATA 03,03
07D6:  DATA 03,03
07D8:  DATA 03,03
07DA:  DATA 03,03
07DC:  DATA 03,03
07DE:  DATA 03,03
07E0:  DATA 03,03
07E2:  DATA 03,03
07E4:  DATA 03,03
07E6:  DATA 03,03
07E8:  DATA 03,03
07EA:  DATA 03,03
07EC:  DATA 03,03
07EE:  DATA 03,03
07F0:  DATA 03,03
07F2:  DATA 03,03
07F4:  DATA 03,03
07F6:  DATA 03,03
07F8:  DATA 03,03
07FA:  DATA 03,03
07FC:  DATA 03,03
07FE:  DATA 03,03
0800:  DATA 03,03
0802:  DATA 03,03
0804:  DATA 03,03
0806:  DATA 03,03
0808:  DATA 03,03
080A:  DATA 03,03
080C:  DATA 03,03
080E:  DATA 03,03
0810:  DATA 03,03
0812:  DATA 03,03
0814:  DATA 03,03
0816:  ADDLW  24
0818:  MOVWF  FF6
081A:  MOVLW  08
081C:  ADDWFC FF7,F
081E:  TBLRD*+
0820:  MOVF   FF5,W
0822:  RETURN 0
0824:  DATA F0,F0
0826:  DATA F0,F0
0828:  DATA F0,F0
082A:  DATA F0,F0
082C:  DATA F0,F0
082E:  DATA F0,E0
0830:  DATA F0,F0
0832:  DATA F0,70
0834:  DATA 70,F0
0836:  DATA F0,F0
0838:  DATA F0,F0
083A:  DATA F0,F0
083C:  DATA F0,F0
083E:  DATA F0,F0
0840:  DATA F0,F0
0842:  DATA F0,F0
0844:  DATA F0,F0
0846:  DATA F0,F0
0848:  DATA F0,F0
084A:  DATA F0,F0
084C:  DATA F0,F0
084E:  DATA F0,F0
0850:  DATA F0,F0
0852:  DATA F0,F0
0854:  DATA F0,F0
0856:  DATA F0,F0
0858:  DATA F0,F0
085A:  DATA F0,F0
085C:  DATA F0,F0
085E:  DATA F0,F0
0860:  DATA F0,F0
0862:  DATA F0,F0
0864:  DATA F0,F0
0866:  DATA F0,F0
0868:  DATA F0,F0
086A:  DATA F0,70
086C:  DATA B0,D0
086E:  DATA F0,E0
0870:  DATA 70,30
0872:  DATA 00,00
0874:  DATA 00,00
0876:  DATA 00,00
0878:  DATA FF,FF
087A:  DATA FF,FF
087C:  DATA FF,FF
087E:  DATA FF,FF
0880:  DATA FF,FF
0882:  DATA FF,FF
0884:  DATA FF,FF
0886:  DATA FF,FE
0888:  DATA FF,FF
088A:  DATA FF,F7
088C:  DATA F7,F7
088E:  DATA FF,FF
0890:  DATA 7F,FF
0892:  DATA 7F,FF
0894:  DATA FF,FF
0896:  DATA FF,FF
0898:  DATA FF,FF
089A:  DATA FF,FF
089C:  DATA FF,FF
089E:  DATA FF,FF
08A0:  DATA 7F,7F
08A2:  DATA 3F,3F
08A4:  DATA 0F,1F
08A6:  DATA 1F,FF
08A8:  DATA FF,FF
08AA:  DATA FF,FF
08AC:  DATA FF,FF
08AE:  DATA FF,FF
08B0:  DATA FF,FF
08B2:  DATA FF,FF
08B4:  DATA FF,7F
08B6:  DATA BF,DF
08B8:  DATA FF,EF
08BA:  DATA 77,3B
08BC:  DATA 1D,1E
08BE:  DATA 0F,07
08C0:  DATA 03,01
08C2:  DATA 01,00
08C4:  DATA 00,00
08C6:  DATA 00,00
08C8:  DATA 00,00
08CA:  DATA 00,00
08CC:  DATA FF,FF
08CE:  DATA F6,F6
08D0:  DATA 17,16
08D2:  DATA 16,17
08D4:  DATA 16,16
08D6:  DATA F7,F7
08D8:  DATA FE,1E
08DA:  DATA 7E,5F
08DC:  DATA DE,DF
08DE:  DATA 1E,1E
08E0:  DATA 1F,1E
08E2:  DATA FE,42
08E4:  DATA C2,C3
08E6:  DATA C2,C2
08E8:  DATA 47,C2
08EA:  DATA C2,C3
08EC:  DATA 42,F6
08EE:  DATA 7F,1F
08F0:  DATA 5F,9E
08F2:  DATA DE,1D
08F4:  DATA 00,02
08F6:  DATA 05,CB
08F8:  DATA E9,E6
08FA:  DATA E0,F0
08FC:  DATA FC,FD
08FE:  DATA FC,7F
0900:  DATA BF,FF
0902:  DATA FF,EF
0904:  DATA 77,3B
0906:  DATA 1D,1F
0908:  DATA 0E,07
090A:  DATA 03,01
090C:  DATA 01,00
090E:  DATA 00,00
0910:  DATA 00,00
0912:  DATA 00,00
0914:  DATA 00,00
0916:  DATA 00,00
0918:  DATA 00,00
091A:  DATA 00,00
091C:  DATA 00,00
091E:  DATA 00,00
0920:  DATA 0F,0F
0922:  DATA 0F,0F
0924:  DATA 0C,0C
0926:  DATA 0C,0C
0928:  DATA 0C,0C
092A:  DATA 0F,0F
092C:  DATA 0F,0E
092E:  DATA 0E,0C
0930:  DATA 0C,0C
0932:  DATA 0C,0C
0934:  DATA 0C,0C
0936:  DATA 0F,0C
0938:  DATA 0C,0C
093A:  DATA 0C,0C
093C:  DATA 0C,0C
093E:  DATA 0C,0C
0940:  DATA 0C,0C
0942:  DATA 0F,0E
0944:  DATA 0C,0C
0946:  DATA 0C,0C
0948:  DATA 0C,0C
094A:  DATA 0C,0F
094C:  DATA 0F,0F
094E:  DATA 0F,07
0950:  DATA 05,07
0952:  DATA 0E,07
0954:  DATA 03,03
0956:  DATA 01,00
0958:  DATA 00,00
095A:  DATA 00,00
095C:  DATA 00,00
095E:  DATA 00,00
0960:  DATA 00,00
0962:  DATA 00,00
0964:  DATA 00,00
0966:  DATA 00,00
0968:  DATA 00,00
096A:  DATA 00,00
096C:  DATA 00,00
096E:  DATA 00,00
0970:  DATA 00,00
0972:  DATA 00,00
0974:  DATA 00,00
0976:  DATA 00,F8
0978:  DATA 38,E0
097A:  DATA 00,00
097C:  DATA 70,38
097E:  DATA F8,E0
0980:  DATA 00,00
0982:  DATA 80,E0
0984:  DATA 00,40
0986:  DATA 20,20
0988:  DATA A0,C0
098A:  DATA 00,00
098C:  DATA F8,00
098E:  DATA 00,00
0990:  DATA 00,E8
0992:  DATA 00,E0
0994:  DATA 20,20
0996:  DATA 60,C0
0998:  DATA 00,F8
099A:  DATA 20,20
099C:  DATA 60,C0
099E:  DATA 00,00
09A0:  DATA F8,C0
09A2:  DATA E0,B0
09A4:  DATA 18,08
09A6:  DATA E8,00
09A8:  DATA C0,60
09AA:  DATA 20,20
09AC:  DATA C0,00
09AE:  DATA E0,20
09B0:  DATA 20,E0
09B2:  DATA C0,00
09B4:  DATA 00,00
09B6:  DATA 00,08
09B8:  DATA 70,80
09BA:  DATA 00,C0
09BC:  DATA 70,08
09BE:  DATA E0,20
09C0:  DATA 20,E0
09C2:  DATA C0,00
09C4:  DATA 00,00
09C6:  DATA 00,00
09C8:  DATA 00,00
09CA:  DATA 00,07
09CC:  DATA 00,00
09CE:  DATA 06,07
09D0:  DATA 00,04
09D2:  DATA 07,07
09D4:  DATA 04,04
09D6:  DATA 07,07
09D8:  DATA 00,07
09DA:  DATA 05,05
09DC:  DATA 03,07
09DE:  DATA 00,00
09E0:  DATA 07,04
09E2:  DATA 04,04
09E4:  DATA 04,07
09E6:  DATA 00,07
09E8:  DATA 00,00
09EA:  DATA 02,07
09EC:  DATA 00,07
09EE:  DATA 00,00
09F0:  DATA 00,07
09F2:  DATA 00,00
09F4:  DATA 07,00
09F6:  DATA 00,01
09F8:  DATA 03,04
09FA:  DATA 07,00
09FC:  DATA 03,05
09FE:  DATA 05,05
0A00:  DATA 05,00
0A02:  DATA 07,00
0A04:  DATA 00,07
0A06:  DATA 07,00
0A08:  DATA 00,04
0A0A:  DATA 00,00
0A0C:  DATA 00,01
0A0E:  DATA 06,03
0A10:  DATA 00,00
0A12:  DATA 07,00
0A14:  DATA 00,07
0A16:  DATA 07,00
0A18:  DATA 00,00
0A1A:  DATA 00,00
0A1C:  ADDLW  2A
0A1E:  MOVWF  FF6
0A20:  MOVLW  0A
0A22:  ADDWFC FF7,F
0A24:  TBLRD*+
0A26:  MOVF   FF5,W
0A28:  RETURN 0
0A2A:  DATA 00,00
0A2C:  DATA 00,00
0A2E:  DATA 00,00
0A30:  DATA 00,00
0A32:  DATA 00,00
0A34:  DATA 00,00
0A36:  DATA 00,00
0A38:  DATA 00,00
0A3A:  DATA 00,00
0A3C:  DATA 00,00
0A3E:  DATA 00,00
0A40:  DATA 00,00
0A42:  DATA 00,00
0A44:  DATA 00,00
0A46:  DATA 00,00
0A48:  DATA 00,80
0A4A:  DATA C8,F0
0A4C:  DATA E0,E0
0A4E:  DATA E0,E0
0A50:  DATA E0,E0
0A52:  DATA E0,60
0A54:  DATA F0,C8
0A56:  DATA 80,00
0A58:  DATA 00,00
0A5A:  DATA 00,00
0A5C:  DATA 00,00
0A5E:  DATA 00,00
0A60:  DATA 00,00
0A62:  DATA 00,00
0A64:  DATA 00,00
0A66:  DATA 00,00
0A68:  DATA 00,00
0A6A:  DATA 00,00
0A6C:  DATA 00,00
0A6E:  DATA 00,00
0A70:  DATA 00,00
0A72:  DATA 00,00
0A74:  DATA 00,00
0A76:  DATA 00,00
0A78:  DATA 00,00
0A7A:  DATA 00,00
0A7C:  DATA 00,00
0A7E:  DATA 00,00
0A80:  DATA 00,00
0A82:  DATA 00,00
0A84:  DATA 00,00
0A86:  DATA 00,00
0A88:  DATA 00,00
0A8A:  DATA 00,00
0A8C:  DATA 00,00
0A8E:  DATA 00,00
0A90:  DATA 00,00
0A92:  DATA 00,00
0A94:  DATA 00,00
0A96:  DATA C0,E0
0A98:  DATA E0,80
0A9A:  DATA 00,EC
0A9C:  DATA EF,EF
0A9E:  DATA EF,EE
0AA0:  DATA EE,EF
0AA2:  DATA EF,EF
0AA4:  DATA EF,EF
0AA6:  DATA EF,EE
0AA8:  DATA EE,EF
0AAA:  DATA EF,EF
0AAC:  DATA EC,00
0AAE:  DATA C0,E0
0AB0:  DATA E0,C0
0AB2:  DATA 00,00
0AB4:  DATA 00,00
0AB6:  DATA 00,00
0AB8:  DATA 00,00
0ABA:  DATA 00,00
0ABC:  DATA 00,00
0ABE:  DATA 00,00
0AC0:  DATA 00,00
0AC2:  DATA 00,00
0AC4:  DATA 00,00
0AC6:  DATA 00,00
0AC8:  DATA 00,00
0ACA:  DATA 00,00
0ACC:  DATA 00,00
0ACE:  DATA 00,00
0AD0:  DATA 00,00
0AD2:  DATA 00,00
0AD4:  DATA 00,00
0AD6:  DATA 00,00
0AD8:  DATA 00,00
0ADA:  DATA 00,00
0ADC:  DATA 00,00
0ADE:  DATA 00,00
0AE0:  DATA 00,00
0AE2:  DATA 00,00
0AE4:  DATA 00,00
0AE6:  DATA 00,00
0AE8:  DATA 00,00
0AEA:  DATA FF,FF
0AEC:  DATA FF,FF
0AEE:  DATA 00,FF
0AF0:  DATA FF,FF
0AF2:  DATA FF,FF
0AF4:  DATA FF,FF
0AF6:  DATA FF,FF
0AF8:  DATA FF,FF
0AFA:  DATA FF,FF
0AFC:  DATA FF,FF
0AFE:  DATA FF,FF
0B00:  DATA FF,00
0B02:  DATA FF,FF
0B04:  DATA FF,FF
0B06:  DATA 00,00
0B08:  DATA 00,00
0B0A:  DATA 00,00
0B0C:  DATA 00,00
0B0E:  DATA 00,00
0B10:  DATA 00,00
0B12:  DATA 00,00
0B14:  DATA 00,00
0B16:  DATA 00,00
0B18:  DATA 00,00
0B1A:  DATA 00,00
0B1C:  DATA 00,00
0B1E:  DATA 00,00
0B20:  DATA 00,00
0B22:  DATA 00,00
0B24:  DATA 00,00
0B26:  DATA 00,00
0B28:  DATA 00,00
0B2A:  DATA 00,00
0B2C:  DATA 00,00
0B2E:  DATA 00,00
0B30:  DATA 00,00
0B32:  DATA 00,00
0B34:  DATA 00,00
0B36:  DATA 00,00
0B38:  DATA 00,00
0B3A:  DATA 00,00
0B3C:  DATA 00,00
0B3E:  DATA 01,01
0B40:  DATA 01,00
0B42:  DATA 00,1F
0B44:  DATA 1F,1F
0B46:  DATA FF,FF
0B48:  DATA FF,FF
0B4A:  DATA 1F,1F
0B4C:  DATA 1F,3F
0B4E:  DATA FF,FF
0B50:  DATA FF,3F
0B52:  DATA 1F,1F
0B54:  DATA 1F,00
0B56:  DATA 01,01
0B58:  DATA 01,01
0B5A:  DATA 00,00
0B5C:  DATA 00,00
0B5E:  DATA 00,00
0B60:  DATA 00,00
0B62:  DATA 00,00
0B64:  DATA 00,00
0B66:  DATA 00,00
0B68:  DATA 00,00
0B6A:  DATA 00,00
0B6C:  DATA 00,00
0B6E:  DATA 00,00
0B70:  DATA 00,00
0B72:  DATA 00,00
0B74:  DATA 00,00
0B76:  DATA 00,00
0B78:  DATA 00,00
0B7A:  DATA 00,00
0B7C:  DATA 00,00
0B7E:  DATA 00,00
0B80:  DATA 00,00
0B82:  DATA 00,00
0B84:  DATA 00,00
0B86:  DATA 00,00
0B88:  DATA 00,00
0B8A:  DATA 00,00
0B8C:  DATA 80,C0
0B8E:  DATA 40,40
0B90:  DATA 40,C0
0B92:  DATA 00,80
0B94:  DATA C0,40
0B96:  DATA 40,C0
0B98:  DATA 80,00
0B9A:  DATA 47,4F
0B9C:  DATA 4F,47
0B9E:  DATA C0,00
0BA0:  DATA 00,40
0BA2:  DATA 4F,4F
0BA4:  DATA 4F,C0
0BA6:  DATA 00,00
0BA8:  DATA C0,40
0BAA:  DATA 40,40
0BAC:  DATA 80,00
0BAE:  DATA C0,C0
0BB0:  DATA 00,40
0BB2:  DATA 40,40
0BB4:  DATA 40,80
0BB6:  DATA 00,00
0BB8:  DATA 00,00
0BBA:  DATA 00,00
0BBC:  DATA 00,00
0BBE:  DATA 00,00
0BC0:  DATA 00,00
0BC2:  DATA 00,00
0BC4:  DATA 00,00
0BC6:  DATA 00,00
0BC8:  DATA 00,00
0BCA:  DATA 00,00
0BCC:  DATA 00,00
0BCE:  DATA 00,00
0BD0:  DATA 00,00
0BD2:  DATA 00,00
0BD4:  DATA 00,00
0BD6:  DATA 00,00
0BD8:  DATA 00,00
0BDA:  DATA 00,00
0BDC:  DATA 00,00
0BDE:  DATA 00,00
0BE0:  DATA 03,06
0BE2:  DATA 04,04
0BE4:  DATA 00,07
0BE6:  DATA 00,0F
0BE8:  DATA 00,00
0BEA:  DATA 00,00
0BEC:  DATA 07,00
0BEE:  DATA 0C,04
0BF0:  DATA 04,04
0BF2:  DATA 07,01
0BF4:  DATA 00,03
0BF6:  DATA 03,02
0BF8:  DATA 03,07
0BFA:  DATA 00,01
0BFC:  DATA 07,04
0BFE:  DATA 04,04
0C00:  DATA 03,00
0C02:  DATA 07,07
0C04:  DATA 00,04
0C06:  DATA 04,04
0C08:  DATA 04,07
0C0A:  DATA 00,00
0C0C:  DATA 00,00
0C0E:  DATA 00,00
0C10:  DATA 00,00
0C12:  DATA 00,00
0C14:  DATA 00,00
0C16:  DATA 00,00
0C18:  DATA 00,00
0C1A:  DATA 00,00
0C1C:  DATA 00,00
0C1E:  DATA 00,00
0C20:  DATA 00,00
0C22:  ADDLW  30
0C24:  MOVWF  FF6
0C26:  MOVLW  0C
0C28:  ADDWFC FF7,F
0C2A:  TBLRD*+
0C2C:  MOVF   FF5,W
0C2E:  RETURN 0
0C30:  DATA 00,00
0C32:  DATA 80,C0
0C34:  DATA C0,70
0C36:  DATA 30,3C
0C38:  DATA 0C,0C
0C3A:  DATA 0C,0C
0C3C:  DATA 3C,3C
0C3E:  DATA 7C,F0
0C40:  DATA F0,40
0C42:  DATA 00,00
0C44:  DATA 00,00
0C46:  DATA 00,00
0C48:  DATA 00,00
0C4A:  DATA 00,00
0C4C:  DATA 00,00
0C4E:  DATA 00,00
0C50:  DATA 00,00
0C52:  DATA 00,00
0C54:  DATA 00,00
0C56:  DATA 00,00
0C58:  DATA 00,00
0C5A:  DATA 00,00
0C5C:  DATA 00,00
0C5E:  DATA 00,00
0C60:  DATA 00,00
0C62:  DATA 00,00
0C64:  DATA 00,00
0C66:  DATA 00,00
0C68:  DATA 00,00
0C6A:  DATA 00,00
0C6C:  DATA 00,00
0C6E:  DATA 03,03
0C70:  DATA FF,FF
0C72:  DATA FF,00
0C74:  DATA 00,00
0C76:  DATA 00,00
0C78:  DATA 00,00
0C7A:  DATA 00,00
0C7C:  DATA 00,00
0C7E:  DATA 00,00
0C80:  DATA 00,00
0C82:  DATA 00,00
0C84:  DATA F0,FE
0C86:  DATA FF,0F
0C88:  DATA 01,00
0C8A:  DATA 00,00
0C8C:  DATA 00,00
0C8E:  DATA 00,00
0C90:  DATA 00,00
0C92:  DATA 00,07
0C94:  DATA 01,00
0C96:  DATA 00,00
0C98:  DATA 00,00
0C9A:  DATA C0,F0
0C9C:  DATA 30,30
0C9E:  DATA 38,38
0CA0:  DATA 30,F0
0CA2:  DATA F0,C0
0CA4:  DATA 00,00
0CA6:  DATA 00,00
0CA8:  DATA 00,C0
0CAA:  DATA F0,30
0CAC:  DATA 38,38
0CAE:  DATA 38,F0
0CB0:  DATA F0,F0
0CB2:  DATA C0,00
0CB4:  DATA 00,00
0CB6:  DATA 00,C0
0CB8:  DATA C0,F0
0CBA:  DATA 30,30
0CBC:  DATA F0,F0
0CBE:  DATA F0,F0
0CC0:  DATA 30,30
0CC2:  DATA 00,00
0CC4:  DATA FF,FF
0CC6:  DATA FF,00
0CC8:  DATA 00,00
0CCA:  DATA C0,F0
0CCC:  DATA 30,30
0CCE:  DATA 38,38
0CD0:  DATA F0,F0
0CD2:  DATA C0,00
0CD4:  DATA 00,30
0CD6:  DATA 30,F0
0CD8:  DATA FF,FF
0CDA:  DATA FF,80
0CDC:  DATA 00,00
0CDE:  DATA 00,00
0CE0:  DATA 00,00
0CE2:  DATA 00,00
0CE4:  DATA 00,80
0CE6:  DATA 80,80
0CE8:  DATA 80,80
0CEA:  DATA 80,00
0CEC:  DATA FC,FF
0CEE:  DATA FF,00
0CF0:  DATA 00,00
0CF2:  DATA 00,00
0CF4:  DATA 00,03
0CF6:  DATA 1F,FF
0CF8:  DATA FF,F8
0CFA:  DATA 00,FC
0CFC:  DATA FF,FF
0CFE:  DATA 00,00
0D00:  DATA 00,00
0D02:  DATA 00,00
0D04:  DATA 03,7F
0D06:  DATA FF,FF
0D08:  DATA F8,00
0D0A:  DATA FF,FF
0D0C:  DATA E3,00
0D0E:  DATA 00,00
0D10:  DATA 00,03
0D12:  DATA FF,FF
0D14:  DATA FC,00
0D16:  DATA 00,00
0D18:  DATA FF,FF
0D1A:  DATA FF,00
0D1C:  DATA E0,FF
0D1E:  DATA FF,63
0D20:  DATA 60,60
0D22:  DATA 78,18
0D24:  DATA 1C,07
0D26:  DATA 07,03
0D28:  DATA 00,00
0D2A:  DATA 00,00
0D2C:  DATA 00,0F
0D2E:  DATA 3F,7F
0D30:  DATA FC,F0
0D32:  DATA C0,80
0D34:  DATA 80,00
0D36:  DATA 00,00
0D38:  DATA 03,03
0D3A:  DATA 03,FF
0D3C:  DATA FF,FF
0D3E:  DATA 00,00
0D40:  DATA 3F,7F
0D42:  DATA FF,F0
0D44:  DATA C0,80
0D46:  DATA 00,00
0D48:  DATA 00,80
0D4A:  DATA C0,7F
0D4C:  DATA 3F,03
0D4E:  DATA 00,3F
0D50:  DATA 7F,FF
0D52:  DATA F0,80
0D54:  DATA 80,00
0D56:  DATA 00,80
0D58:  DATA 80,F0
0D5A:  DATA 7F,3F
0D5C:  DATA 03,00
0D5E:  DATA 03,0F
0D60:  DATA 0F,3F
0D62:  DATA 3C,F0
0D64:  DATA FC,FC
0D66:  DATA 8F,03
0D68:  DATA 00,00
0D6A:  DATA 00,80
0D6C:  DATA FF,FF
0D6E:  DATA FF,80
0D70:  DATA 00,3F
0D72:  DATA 7F,FF
0D74:  DATA F0,C0
0D76:  DATA 80,80
0D78:  DATA 80,80
0D7A:  DATA 80,80
0D7C:  DATA 00,00
0D7E:  DATA 00,00
0D80:  DATA 00,00
0D82:  DATA 00,00
0D84:  DATA 01,07
0D86:  DATA 07,07
0D88:  DATA 07,06
0D8A:  DATA 06,06
0D8C:  DATA 06,06
0D8E:  DATA 06,07
0D90:  DATA 01,01
0D92:  DATA 00,00
0D94:  DATA 00,00
0D96:  DATA 01,01
0D98:  DATA 07,07
0D9A:  DATA 06,06
0D9C:  DATA 06,07
0D9E:  DATA 01,00
0DA0:  DATA 00,00
0DA2:  DATA 00,00
0DA4:  DATA 00,01
0DA6:  DATA 01,07
0DA8:  DATA 07,06
0DAA:  DATA 06,07
0DAC:  DATA 01,01
0DAE:  DATA 00,00
0DB0:  DATA 00,F0
0DB2:  DATA F0,38
0DB4:  DATA 08,0E
0DB6:  DATA 0E,07
0DB8:  DATA 07,0F
0DBA:  DATA 3F,FE
0DBC:  DATA F8,F0
0DBE:  DATA 00,07
0DC0:  DATA 07,07
0DC2:  DATA 07,07
0DC4:  DATA 00,00
0DC6:  DATA 00,01
0DC8:  DATA 07,07
0DCA:  DATA 07,07
0DCC:  DATA 07,07
0DCE:  DATA 01,01
0DD0:  DATA 00,00
0DD2:  DATA 00,00
0DD4:  DATA 00,00
0DD6:  DATA 00,00
0DD8:  DATA 00,00
0DDA:  DATA 00,00
0DDC:  DATA 00,00
0DDE:  DATA 00,00
0DE0:  DATA 00,00
0DE2:  DATA 00,00
0DE4:  DATA 00,00
0DE6:  DATA 00,00
0DE8:  DATA 00,00
0DEA:  DATA 00,00
0DEC:  DATA 00,00
0DEE:  DATA 00,00
0DF0:  DATA 00,00
0DF2:  DATA 00,00
0DF4:  DATA 00,00
0DF6:  DATA 00,00
0DF8:  DATA 00,00
0DFA:  DATA 00,00
0DFC:  DATA 00,00
0DFE:  DATA 00,00
0E00:  DATA 00,00
0E02:  DATA 00,00
0E04:  DATA 07,7F
0E06:  DATA 7F,F8
0E08:  DATA E0,E0
0E0A:  DATA 80,80
0E0C:  DATA 80,E0
0E0E:  DATA 60,78
0E10:  DATA 1F,07
0E12:  DATA 00,00
0E14:  DATA 00,00
0E16:  DATA 00,00
0E18:  DATA 00,00
0E1A:  DATA 00,00
0E1C:  DATA 00,00
0E1E:  DATA 00,00
0E20:  DATA 00,00
0E22:  DATA 00,00
0E24:  DATA 00,00
0E26:  DATA 00,00
0E28:  ADDLW  36
0E2A:  MOVWF  FF6
0E2C:  MOVLW  0E
0E2E:  ADDWFC FF7,F
0E30:  TBLRD*+
0E32:  MOVF   FF5,W
0E34:  RETURN 0
0E36:  DATA 00,00
0E38:  DATA 00,00
0E3A:  DATA 00,00
0E3C:  DATA 00,00
0E3E:  DATA 00,00
0E40:  DATA 00,00
0E42:  DATA 00,00
0E44:  DATA 00,00
0E46:  DATA 00,00
0E48:  DATA 00,00
0E4A:  DATA 00,00
0E4C:  DATA 00,00
0E4E:  DATA 00,00
0E50:  DATA 00,00
0E52:  DATA 00,00
0E54:  DATA 00,00
0E56:  DATA 00,00
0E58:  DATA 00,00
0E5A:  DATA 00,00
0E5C:  DATA 80,E0
0E5E:  DATA F0,F8
0E60:  DATA FC,FE
0E62:  DATA FE,7F
0E64:  DATA 3F,07
0E66:  DATA 00,00
0E68:  DATA 00,00
0E6A:  DATA 00,00
0E6C:  DATA 00,00
0E6E:  DATA 00,00
0E70:  DATA 00,00
0E72:  DATA 00,00
0E74:  DATA 00,00
0E76:  DATA 00,00
0E78:  DATA 00,00
0E7A:  DATA 00,00
0E7C:  DATA 00,00
0E7E:  DATA 00,00
0E80:  DATA 00,00
0E82:  DATA 00,00
0E84:  DATA 00,00
0E86:  DATA 00,00
0E88:  DATA 00,00
0E8A:  DATA 00,00
0E8C:  DATA 00,00
0E8E:  DATA 00,00
0E90:  DATA 00,00
0E92:  DATA 00,00
0E94:  DATA 00,00
0E96:  DATA 00,00
0E98:  DATA 00,00
0E9A:  DATA 00,00
0E9C:  DATA 00,00
0E9E:  DATA 00,80
0EA0:  DATA C0,E0
0EA2:  DATA F0,F0
0EA4:  DATA F8,F8
0EA6:  DATA F8,F8
0EA8:  DATA F8,F8
0EAA:  DATA F8,F8
0EAC:  DATA F8,F8
0EAE:  DATA F0,F0
0EB0:  DATA F7,F7
0EB2:  DATA F7,F7
0EB4:  DATA FB,F9
0EB6:  DATA F9,F8
0EB8:  DATA FC,FC
0EBA:  DATA FC,FC
0EBC:  DATA F8,F8
0EBE:  DATA F8,F0
0EC0:  DATA E0,E0
0EC2:  DATA C0,00
0EC4:  DATA 00,00
0EC6:  DATA 00,00
0EC8:  DATA 00,00
0ECA:  DATA 00,00
0ECC:  DATA 00,00
0ECE:  DATA 00,00
0ED0:  DATA 00,00
0ED2:  DATA 00,00
0ED4:  DATA 00,00
0ED6:  DATA 00,00
0ED8:  DATA 00,00
0EDA:  DATA 00,00
0EDC:  DATA 00,00
0EDE:  DATA 00,00
0EE0:  DATA 00,00
0EE2:  DATA 00,00
0EE4:  DATA 00,00
0EE6:  DATA 00,00
0EE8:  DATA 00,00
0EEA:  DATA 00,00
0EEC:  DATA 00,00
0EEE:  DATA 00,00
0EF0:  DATA 00,F8
0EF2:  DATA FE,FF
0EF4:  DATA FF,FF
0EF6:  DATA FF,FF
0EF8:  DATA FF,FF
0EFA:  DATA FF,FF
0EFC:  DATA FF,FF
0EFE:  DATA FF,FF
0F00:  DATA FF,FF
0F02:  DATA FF,FF
0F04:  DATA FF,FF
0F06:  DATA FF,FF
0F08:  DATA FF,FF
0F0A:  DATA FF,FF
0F0C:  DATA FF,FF
0F0E:  DATA FF,FF
0F10:  DATA FF,FF
0F12:  DATA 1F,07
0F14:  DATA 01,00
0F16:  DATA 00,00
0F18:  DATA 00,00
0F1A:  DATA 00,00
0F1C:  DATA 00,00
0F1E:  DATA 00,00
0F20:  DATA 00,00
0F22:  DATA 00,00
0F24:  DATA 00,00
0F26:  DATA 00,00
0F28:  DATA 00,00
0F2A:  DATA 00,00
0F2C:  DATA 00,00
0F2E:  DATA 00,00
0F30:  DATA 00,00
0F32:  DATA 00,00
0F34:  DATA 00,00
0F36:  DATA 00,00
0F38:  DATA 00,00
0F3A:  DATA 00,00
0F3C:  DATA 00,00
0F3E:  DATA 00,00
0F40:  DATA 00,00
0F42:  DATA 00,00
0F44:  DATA 00,7F
0F46:  DATA FF,FF
0F48:  DATA FF,FF
0F4A:  DATA FF,FF
0F4C:  DATA FF,FF
0F4E:  DATA FF,FF
0F50:  DATA FF,FF
0F52:  DATA FF,FF
0F54:  DATA FF,FF
0F56:  DATA FF,FF
0F58:  DATA FF,FF
0F5A:  DATA FF,FF
0F5C:  DATA FF,FF
0F5E:  DATA FF,FF
0F60:  DATA FF,FF
0F62:  DATA FF,FF
0F64:  DATA FF,FF
0F66:  DATA F8,C0
0F68:  DATA 80,00
0F6A:  DATA 00,00
0F6C:  DATA 00,00
0F6E:  DATA 00,00
0F70:  DATA 00,00
0F72:  DATA 00,00
0F74:  DATA 00,00
0F76:  DATA 00,00
0F78:  DATA 00,00
0F7A:  DATA 00,00
0F7C:  DATA 00,00
0F7E:  DATA 00,00
0F80:  DATA 00,00
0F82:  DATA 00,00
0F84:  DATA 00,00
0F86:  DATA 00,00
0F88:  DATA 00,00
0F8A:  DATA 00,00
0F8C:  DATA 00,00
0F8E:  DATA 00,00
0F90:  DATA 00,00
0F92:  DATA 00,00
0F94:  DATA 00,00
0F96:  DATA 00,00
0F98:  DATA 00,00
0F9A:  DATA 03,0F
0F9C:  DATA 3F,FF
0F9E:  DATA FF,FF
0FA0:  DATA FF,FF
0FA2:  DATA FF,FF
0FA4:  DATA FF,FF
0FA6:  DATA FF,FF
0FA8:  DATA FF,FF
0FAA:  DATA FF,FF
0FAC:  DATA FF,FF
0FAE:  DATA FF,FF
0FB0:  DATA FF,FF
0FB2:  DATA FF,FF
0FB4:  DATA FF,FF
0FB6:  DATA FF,FF
0FB8:  DATA FF,FF
0FBA:  DATA FF,FF
0FBC:  DATA FF,7F
0FBE:  DATA 3E,0E
0FC0:  DATA 00,00
0FC2:  DATA 00,00
0FC4:  DATA 00,00
0FC6:  DATA 00,00
0FC8:  DATA 00,00
0FCA:  DATA 00,00
0FCC:  DATA 00,00
0FCE:  DATA 00,00
0FD0:  DATA 00,00
0FD2:  DATA 00,00
0FD4:  DATA 00,00
0FD6:  DATA 00,00
0FD8:  DATA 00,00
0FDA:  DATA 00,00
0FDC:  DATA 00,00
0FDE:  DATA 00,00
0FE0:  DATA 00,00
0FE2:  DATA 00,00
0FE4:  DATA 00,00
0FE6:  DATA 00,00
0FE8:  DATA 00,00
0FEA:  DATA 00,00
0FEC:  DATA 00,00
0FEE:  DATA 00,00
0FF0:  DATA 00,00
0FF2:  DATA 01,07
0FF4:  DATA 0F,1F
0FF6:  DATA 1F,3F
0FF8:  DATA 3F,3F
0FFA:  DATA 3F,3F
0FFC:  DATA 3F,1F
0FFE:  DATA 1F,1F
1000:  DATA 0F,0F
1002:  DATA 0F,1F
1004:  DATA 1F,1F
1006:  DATA 3F,3F
1008:  DATA 3F,3F
100A:  DATA 3F,3F
100C:  DATA 1F,0F
100E:  DATA 07,03
1010:  DATA 01,00
1012:  DATA 00,00
1014:  DATA 00,00
1016:  DATA 00,00
1018:  DATA 00,00
101A:  DATA 00,00
101C:  DATA 00,00
101E:  DATA 00,00
1020:  DATA 00,00
1022:  DATA 00,00
1024:  DATA 00,00
1026:  DATA 00,00
1028:  DATA 00,00
102A:  DATA 00,00
102C:  DATA 00,00
102E:  ADDLW  3C
1030:  MOVWF  FF6
1032:  MOVLW  10
1034:  ADDWFC FF7,F
1036:  TBLRD*+
1038:  MOVF   FF5,W
103A:  RETURN 0
103C:  DATA 00,00
103E:  DATA 00,00
1040:  DATA 00,00
1042:  DATA 00,00
1044:  DATA 00,00
1046:  DATA 00,00
1048:  DATA 00,00
104A:  DATA 00,00
104C:  DATA 00,00
104E:  DATA 00,00
1050:  DATA 00,00
1052:  DATA 00,00
1054:  DATA 00,00
1056:  DATA 00,00
1058:  DATA 00,00
105A:  DATA 00,00
105C:  DATA 00,00
105E:  DATA 00,00
1060:  DATA 00,00
1062:  DATA 00,00
1064:  DATA 00,00
1066:  DATA 00,00
1068:  DATA 00,00
106A:  DATA 00,00
106C:  DATA 00,00
106E:  DATA 00,00
1070:  DATA 00,00
1072:  DATA 00,00
1074:  DATA 00,00
1076:  DATA 00,00
1078:  DATA 00,00
107A:  DATA 00,00
107C:  DATA 00,00
107E:  DATA 00,00
1080:  DATA 00,00
1082:  DATA 00,00
1084:  DATA 00,00
1086:  DATA 00,00
1088:  DATA 00,00
108A:  DATA 00,00
108C:  DATA 00,00
108E:  DATA 00,00
1090:  DATA 00,00
1092:  DATA 00,00
1094:  DATA 00,00
1096:  DATA 00,00
1098:  DATA 00,00
109A:  DATA 00,C0
109C:  DATA C0,C0
109E:  DATA C0,40
10A0:  DATA 00,00
10A2:  DATA 00,00
10A4:  DATA 00,00
10A6:  DATA 00,00
10A8:  DATA 00,00
10AA:  DATA 00,00
10AC:  DATA 00,00
10AE:  DATA 00,00
10B0:  DATA 00,00
10B2:  DATA 00,00
10B4:  DATA 00,00
10B6:  DATA 00,00
10B8:  DATA 80,C0
10BA:  DATA C0,00
10BC:  DATA 00,00
10BE:  DATA 00,00
10C0:  DATA 00,00
10C2:  DATA 00,00
10C4:  DATA 00,00
10C6:  DATA 00,00
10C8:  DATA 00,00
10CA:  DATA 00,00
10CC:  DATA 00,00
10CE:  DATA 00,00
10D0:  DATA 00,00
10D2:  DATA 00,C0
10D4:  DATA C0,C0
10D6:  DATA 00,00
10D8:  DATA 00,00
10DA:  DATA 00,00
10DC:  DATA 00,00
10DE:  DATA 00,00
10E0:  DATA 00,00
10E2:  DATA 00,00
10E4:  DATA 00,00
10E6:  DATA 00,00
10E8:  DATA 00,00
10EA:  DATA 00,00
10EC:  DATA 00,F0
10EE:  DATA FE,FF
10F0:  DATA FF,F3
10F2:  DATA F1,01
10F4:  DATA F0,F0
10F6:  DATA F0,F0
10F8:  DATA F0,E0
10FA:  DATA C0,00
10FC:  DATA C0,E0
10FE:  DATA F0,F0
1100:  DATA F0,F0
1102:  DATA E0,00
1104:  DATA E0,F0
1106:  DATA F0,70
1108:  DATA F0,E0
110A:  DATA C0,00
110C:  DATA FF,FF
110E:  DATA FF,F0
1110:  DATA F0,F0
1112:  DATA F0,E0
1114:  DATA 00,C0
1116:  DATA E0,F0
1118:  DATA F0,F0
111A:  DATA F0,E0
111C:  DATA C0,00
111E:  DATA C0,E0
1120:  DATA F0,F0
1122:  DATA F0,F0
1124:  DATA E0,80
1126:  DATA 00,FF
1128:  DATA FF,FF
112A:  DATA 00,E0
112C:  DATA F0,F0
112E:  DATA 30,00
1130:  DATA 00,00
1132:  DATA 00,00
1134:  DATA 00,00
1136:  DATA 00,00
1138:  DATA 00,00
113A:  DATA 00,00
113C:  DATA 00,00
113E:  DATA 00,00
1140:  DATA 00,00
1142:  DATA FF,FF
1144:  DATA FF,00
1146:  DATA 00,F0
1148:  DATA F8,FC
114A:  DATA 9C,9C
114C:  DATA FF,FF
114E:  DATA FF,00
1150:  DATA FF,FF
1152:  DATA FF,80
1154:  DATA 80,C0
1156:  DATA C0,7F
1158:  DATA FF,FF
115A:  DATA DC,9C
115C:  DATA 9F,9F
115E:  DATA DF,00
1160:  DATA FF,FF
1162:  DATA FF,80
1164:  DATA 80,FF
1166:  DATA FF,FF
1168:  DATA 00,FF
116A:  DATA FF,FF
116C:  DATA 80,80
116E:  DATA FF,FF
1170:  DATA FF,00
1172:  DATA FF,FF
1174:  DATA FF,80
1176:  DATA C0,FF
1178:  DATA FF,FF
117A:  DATA 00,FF
117C:  DATA FF,DE
117E:  DATA 3F,FF
1180:  DATA F7,C0
1182:  DATA 00,00
1184:  DATA 80,00
1186:  DATA 00,00
1188:  DATA 00,00
118A:  DATA 00,00
118C:  DATA 00,00
118E:  DATA 00,00
1190:  DATA 00,00
1192:  DATA 00,00
1194:  DATA 00,00
1196:  DATA 03,03
1198:  DATA 03,00
119A:  DATA 00,01
119C:  DATA 03,03
119E:  DATA 03,03
11A0:  DATA 03,03
11A2:  DATA 03,00
11A4:  DATA 01,03
11A6:  DATA 03,03
11A8:  DATA 03,03
11AA:  DATA 03,00
11AC:  DATA 01,03
11AE:  DATA 03,03
11B0:  DATA 03,03
11B2:  DATA 03,00
11B4:  DATA 03,03
11B6:  DATA 03,03
11B8:  DATA 03,03
11BA:  DATA 03,01
11BC:  DATA 00,00
11BE:  DATA 01,03
11C0:  DATA 03,03
11C2:  DATA 03,01
11C4:  DATA 00,00
11C6:  DATA 00,03
11C8:  DATA 03,03
11CA:  DATA 03,03
11CC:  DATA 01,00
11CE:  DATA 00,03
11D0:  DATA 03,03
11D2:  DATA 00,01
11D4:  DATA 03,03
11D6:  DATA 02,00
11D8:  DATA 03,00
11DA:  DATA 00,00
11DC:  DATA 00,00
11DE:  DATA 00,00
11E0:  DATA 00,00
11E2:  DATA 00,00
11E4:  DATA 00,00
11E6:  DATA 00,00
11E8:  DATA 00,00
11EA:  DATA 00,00
11EC:  DATA 00,00
11EE:  DATA 00,00
11F0:  DATA 00,00
11F2:  DATA 00,00
11F4:  DATA 00,00
11F6:  DATA 00,00
11F8:  DATA 00,00
11FA:  DATA 00,00
11FC:  DATA 00,00
11FE:  DATA 00,00
1200:  DATA 00,00
1202:  DATA 00,00
1204:  DATA 00,00
1206:  DATA 00,00
1208:  DATA 00,00
120A:  DATA 00,00
120C:  DATA 00,00
120E:  DATA 00,00
1210:  DATA 00,00
1212:  DATA 00,00
1214:  DATA 00,00
1216:  DATA 00,00
1218:  DATA 00,00
121A:  DATA 00,00
121C:  DATA 00,00
121E:  DATA 00,00
1220:  DATA 00,00
1222:  DATA 00,00
1224:  DATA 00,00
1226:  DATA 00,00
1228:  DATA 00,00
122A:  DATA 00,00
122C:  DATA 00,00
122E:  DATA 00,00
1230:  DATA 00,00
1232:  DATA 00,00
1234:  DATA 4C,61
1236:  DATA 70,74
1238:  DATA 72,69
123A:  DATA 6E,68
123C:  DATA 70,69
123E:  DATA 63,2E
1240:  DATA 69,6E
1242:  DATA 66,6F
1244:  DATA 00,00
1246:  DATA 4D,75
1248:  DATA 61,6C
124A:  DATA 69,6E
124C:  DATA 68,6B
124E:  DATA 69,65
1250:  DATA 6E,2E
1252:  DATA 76,6E
1254:  DATA 00,00
1256:  DATA 4C,43
1258:  DATA 44,20
125A:  DATA 35,31
125C:  DATA 31,30
125E:  DATA 00,00
1260:  DATA 2D,2D
1262:  DATA 2D,2D
1264:  DATA 2D,2D
1266:  DATA 2D,2D
1268:  DATA 2D,2D
126A:  DATA 2D,2D
126C:  DATA 2D,2D
126E:  DATA 2D,2D
1270:  DATA 2D,00
1272:  DATA 4C,6F
1274:  DATA 61,64
1276:  DATA 20,69
1278:  DATA 6D,61
127A:  DATA 67,65
127C:  DATA 00,00
127E:  DATA 73,74
1280:  DATA 72,69
1282:  DATA 6E,67
1284:  DATA 35,00
*
147C:  TBLRD*+
147E:  MOVF   FF5,F
1480:  BZ    149A
1482:  MOVFF  FF6,0C
1486:  MOVFF  FF7,0D
148A:  MOVFF  FF5,0E
148E:  BRA    1472
1490:  MOVFF  0C,FF6
1494:  MOVFF  0D,FF7
1498:  BRA    147C
149A:  RETURN 0
....................  
.................... #list 
....................  
.................... #device PASS_STRINGS=IN_RAM 
....................  
.................... #FUSES NOWDT                    //No Watch Dog Timer 
.................... #FUSES WDT128                   //Watch Dog Timer uses 1:128 Postscale 
.................... #FUSES NOBROWNOUT               //No brownout reset 
.................... #FUSES NOLVP                    //No low voltage prgming, B3(PIC16) or B5(PIC18) used for I/O 
.................... #FUSES NOXINST                  //Extended set extension and Indexed Addressing mode disabled (Legacy mode) 
....................  
.................... #use delay(crystal=20000000) 
*
1286:  MOVLW  03
1288:  SUBWF  0C,F
128A:  BNC   129E
128C:  CLRF   FEA
128E:  MOVLW  0C
1290:  MOVWF  FE9
1292:  MOVF   FEF,W
1294:  BZ    129E
1296:  BRA    129A
1298:  BRA    129A
129A:  DECFSZ FEF,F
129C:  BRA    1298
129E:  GOTO   13AC (RETURN)
12A2:  CLRF   FEA
12A4:  MOVLW  0D
12A6:  MOVWF  FE9
12A8:  MOVF   FEF,W
12AA:  BZ    12C6
12AC:  MOVLW  06
12AE:  MOVWF  01
12B0:  CLRF   00
12B2:  DECFSZ 00,F
12B4:  BRA    12B2
12B6:  DECFSZ 01,F
12B8:  BRA    12B0
12BA:  MOVLW  7B
12BC:  MOVWF  00
12BE:  DECFSZ 00,F
12C0:  BRA    12BE
12C2:  DECFSZ FEF,F
12C4:  BRA    12AC
12C6:  RETURN 0
.................... #define lcd_sclk  PIN_A0  
.................... #define lcd_sda   PIN_A1               
.................... #define lcd_dc    PIN_A2                      
.................... #define lcd_cs    PIN_A3                                                                             
.................... #define lcd_res   PIN_A5                                                                                       
....................                                                                                                       
.................... #include "5110lib\3310(modified).c" 
.................... //////////////////////////////////////////////////////////////////////////////// 
.................... /* 
....................                      LPH7779-LCD(Nokia 3310) library 
....................                      LPH7366-LCD(Nokia 5110) library 
.................... */ 
.................... //////////////////////////////////////////////////////////////////////////////// 
....................  
.................... char CONST TABLE1 [240] = {  // ASCII table for NOKIA LCD: 96 rows * 5 bytes= 480 bytes 
....................                   0x00,0x00,0x00,0x00,0x00,   // 20 space 
....................                   0x00,0x00,0x5f,0x00,0x00,   // 21 ! 
....................                   0x00,0x07,0x00,0x07,0x00,   // 22 " 
....................                   0x14,0x7f,0x14,0x7f,0x14,   // 23 # 
....................                   0x24,0x2a,0x7f,0x2a,0x12,   // 24 $ 
....................                   0x23,0x13,0x08,0x64,0x62,   // 25 % 
....................                   0x36,0x49,0x55,0x22,0x50,   // 26 & 
....................                   0x00,0x05,0x03,0x00,0x00,   // 27 ' 
....................                   0x00,0x1c,0x22,0x41,0x00,   // 28 ( 
....................                   0x00,0x41,0x22,0x1c,0x00,   // 29 ) 
....................                   0x14,0x08,0x3e,0x08,0x14,   // 2a * 
....................                   0x08,0x08,0x3e,0x08,0x08,   // 2b + 
....................                   0x00,0x50,0x30,0x00,0x00,   // 2c , 
....................                   0x08,0x08,0x08,0x08,0x08,   // 2d - 
....................                   0x00,0x60,0x60,0x00,0x00,   // 2e . 
....................                   0x20,0x10,0x08,0x04,0x02,   // 2f / 
....................                   0x3e,0x51,0x49,0x45,0x3e,   // 30 0 
....................                   0x00,0x42,0x7f,0x40,0x00,   // 31 1 
....................                   0x42,0x61,0x51,0x49,0x46,   // 32 2 
....................                   0x21,0x41,0x45,0x4b,0x31,   // 33 3 
....................                   0x18,0x14,0x12,0x7f,0x10,   // 34 4 
....................                   0x27,0x45,0x45,0x45,0x39,   // 35 5 
....................                   0x3c,0x4a,0x49,0x49,0x30,   // 36 6 
....................                   0x01,0x71,0x09,0x05,0x03,   // 37 7 
....................                   0x36,0x49,0x49,0x49,0x36,   // 38 8 
....................                   0x06,0x49,0x49,0x29,0x1e,   // 39 9 
....................                   0x00,0x36,0x36,0x00,0x00,   // 3a : 
....................                   0x00,0x56,0x36,0x00,0x00,   // 3b ; 
....................                   0x08,0x14,0x22,0x41,0x00,   // 3c < 
....................                   0x14,0x14,0x14,0x14,0x14,   // 3d = 
....................                   0x00,0x41,0x22,0x14,0x08,   // 3e > 
....................                   0x02,0x01,0x51,0x09,0x06,   // 3f ? 
....................                   0x32,0x49,0x79,0x41,0x3e,   // 40 @ 
....................                   0x7e,0x11,0x11,0x11,0x7e,   // 41 A 
....................                   0x7f,0x49,0x49,0x49,0x36,   // 42 B 
....................                   0x3e,0x41,0x41,0x41,0x22,   // 43 C 
....................                   0x7f,0x41,0x41,0x22,0x1c,   // 44 D 
....................                   0x7f,0x49,0x49,0x49,0x41,   // 45 E 
....................                   0x7f,0x09,0x09,0x09,0x01,   // 46 F 
....................                   0x3e,0x41,0x49,0x49,0x7a,   // 47 G 
....................                   0x7f,0x08,0x08,0x08,0x7f,   // 48 H 
....................                   0x00,0x41,0x7f,0x41,0x00,   // 49 I 
....................                   0x20,0x40,0x41,0x3f,0x01,   // 4a J 
....................                   0x7f,0x08,0x14,0x22,0x41,   // 4b K 
....................                   0x7f,0x40,0x40,0x40,0x40,   // 4c L 
....................                   0x7f,0x02,0x0c,0x02,0x7f,   // 4d M 
....................                   0x7f,0x04,0x08,0x10,0x7f,   // 4e N 
....................                   0x3e,0x41,0x41,0x41,0x3e};   // 4f O 
....................  
.................... char CONST TABLE2 [240] = { 
....................                   0x7f,0x09,0x09,0x09,0x06,   // 50 P 
....................                   0x3e,0x41,0x51,0x21,0x5e,   // 51 Q 
....................                   0x7f,0x09,0x19,0x29,0x46,   // 52 R 
....................                   0x46,0x49,0x49,0x49,0x31,   // 53 S 
....................                   0x01,0x01,0x7f,0x01,0x01,   // 54 T 
....................                   0x3f,0x40,0x40,0x40,0x3f,   // 55 U 
....................                   0x1f,0x20,0x40,0x20,0x1f,   // 56 V 
....................                   0x3f,0x40,0x38,0x40,0x3f,   // 57 W 
....................                   0x63,0x14,0x08,0x14,0x63,   // 58 X 
....................                   0x07,0x08,0x70,0x08,0x07,   // 59 Y 
....................                   0x61,0x51,0x49,0x45,0x43,   // 5a Z 
....................                   0x00,0x7f,0x41,0x41,0x00,   // 5b [ 
....................                   0x02,0x04,0x08,0x10,0x20,   // 5c \ 
....................                   0x00,0x41,0x41,0x7f,0x00,   // 5d  
....................                   0x04,0x02,0x01,0x02,0x04,   // 5e ^ 
....................                   0x40,0x40,0x40,0x40,0x40,   // 5f _ 
....................                   0x00,0x01,0x02,0x04,0x00,   // 60 ` 
....................                   0x20,0x54,0x54,0x54,0x78,   // 61 a 
....................                   0x7f,0x48,0x44,0x44,0x38,   // 62 b 
....................                   0x38,0x44,0x44,0x44,0x20,   // 63 c 
....................                   0x38,0x44,0x44,0x48,0x7f,   // 64 d 
....................                   0x38,0x54,0x54,0x54,0x18,   // 65 e 
....................                   0x08,0x7e,0x09,0x01,0x02,   // 66 f 
....................                   0x0c,0x52,0x52,0x52,0x3e,   // 67 g 
....................                   0x7f,0x08,0x04,0x04,0x78,   // 68 h 
....................                   0x00,0x44,0x7d,0x40,0x00,   // 69 i 
....................                   0x20,0x40,0x44,0x3d,0x00,   // 6a j 
....................                   0x7f,0x10,0x28,0x44,0x00,   // 6b k 
....................                   0x00,0x41,0x7f,0x40,0x00,   // 6c l 
....................                   0x7c,0x04,0x18,0x04,0x78,   // 6d m 
....................                   0x7c,0x08,0x04,0x04,0x78,   // 6e n 
....................                   0x38,0x44,0x44,0x44,0x38,   // 6f o 
....................                   0x7c,0x14,0x14,0x14,0x08,   // 70 p 
....................                   0x08,0x14,0x14,0x18,0x7c,   // 71 q 
....................                   0x7c,0x08,0x04,0x04,0x08,   // 72 r 
....................                   0x48,0x54,0x54,0x54,0x20,   // 73 s 
....................                   0x04,0x3f,0x44,0x40,0x20,   // 74 t 
....................                   0x3c,0x40,0x40,0x20,0x7c,   // 75 u 
....................                   0x1c,0x20,0x40,0x20,0x1c,   // 76 v 
....................                   0x3c,0x40,0x30,0x40,0x3c,   // 77 w 
....................                   0x44,0x28,0x10,0x28,0x44,   // 78 x 
....................                   0x0c,0x50,0x50,0x50,0x3c,   // 79 y 
....................                   0x44,0x64,0x54,0x4c,0x44,   // 7a z 
....................                   0x00,0x08,0x36,0x41,0x00,   // 7b { 
....................                   0x00,0x00,0x7f,0x00,0x00,   // 7c | 
....................                   0x00,0x41,0x36,0x08,0x00,   // 7d } 
....................                   0x10,0x08,0x08,0x10,0x08,   // 7e ~ 
....................                   0x78,0x46,0x41,0x46,0x78};  // 7f  
....................  
....................          // 7e,43,40,43,7e -->  
....................          // 7e,43,42,43,7e -->  
....................          // 1e,21,21,71,21 -->  
....................          // 3c,42,53,53,72 -->  
....................  
.................... //function prototypes 
.................... void    nokia_init(); 
.................... void    nokia_write_command(char bytefornokia_command); 
.................... void    nokia_write_data(char bytefornokia_data); 
.................... void    nokia_write_dorc(char bytefornokia); 
.................... void    nokia_gotoxy(char xnokia, char ynokia); 
.................... void    nokia_contrast (byte contrast); 
.................... void    nokia_printchar(char cvar); 
.................... void    nokia_printchar_inverted(char cvar); 
.................... void    nokia_clean_ddram(); 
.................... void    table_to_nokialcd(); 
.................... void    table_to_nokialcd_inverted(); 
.................... void    LcdPixel (char x, char y); 
....................  
.................... char char_row,charsel,charpos,chardata; 
.................... int16 ddram; 
....................  
.................... void nokia_init() { 
....................    output_high(lcd_dc);            // bytes are stored in the display data ram, address counter, incremented automatically 
*
139E:  BCF    F92.2
13A0:  BSF    F89.2
....................    output_high(lcd_cs);            // chip disabled 
13A2:  BCF    F92.3
13A4:  BSF    F89.3
....................    delay_us(200); 
13A6:  MOVLW  C8
13A8:  MOVWF  0C
13AA:  BRA    1286
....................  
....................    output_low(lcd_res); 
13AC:  BCF    F92.5
13AE:  BCF    F89.5
....................    delay_ms(50); 
13B0:  MOVLW  32
13B2:  MOVWF  0D
13B4:  RCALL  12A2
....................    output_high(lcd_res); 
13B6:  BCF    F92.5
13B8:  BSF    F89.5
....................  
....................    nokia_write_command(0x21); // set extins extended instruction set 
13BA:  MOVLW  21
13BC:  MOVWF  0F
13BE:  RCALL  1306
....................    nokia_write_command(0xc8); // Vop  v1: 0xc8 (for 3V), v2: 0xa0 (for 3V) 
13C0:  MOVLW  C8
13C2:  MOVWF  0F
13C4:  RCALL  1306
....................    nokia_write_command(0x12); // bias (contrast) 
13C6:  MOVLW  12
13C8:  MOVWF  0F
13CA:  RCALL  1306
....................    nokia_write_command(0x20); // horizontal mode from left to right, X axe are incremented automatically, 
13CC:  MOVLW  20
13CE:  MOVWF  0F
13D0:  RCALL  1306
....................                               // 0x22 for vertical addressing, back on normal instruction set too 
....................    nokia_write_command(0x09); // all on 
13D2:  MOVLW  09
13D4:  MOVWF  0F
13D6:  RCALL  1306
....................  
....................    delay_ms(50); 
13D8:  MOVLW  32
13DA:  MOVWF  0D
13DC:  RCALL  12A2
....................  
....................    nokia_clean_ddram();       // reset DDRAM, otherwise the lcd is blurred with random pixels 
13DE:  RCALL  1378
....................  
....................    delay_ms(10); 
13E0:  MOVLW  0A
13E2:  MOVWF  0D
13E4:  RCALL  12A2
....................  
....................    nokia_write_command(0x08); // mod control blank change (all off) 
13E6:  MOVLW  08
13E8:  MOVWF  0F
13EA:  RCALL  1306
....................    delay_ms(10); 
13EC:  MOVLW  0A
13EE:  MOVWF  0D
13F0:  RCALL  12A2
....................  
....................    nokia_write_command(0x0c); // mod control normal change 
13F2:  MOVLW  0C
13F4:  MOVWF  0F
13F6:  RCALL  1306
13F8:  GOTO   14B0 (RETURN)
.................... } 
....................  
.................... void nokia_clean_ddram() { 
....................    nokia_gotoxy(0,0);         // 84*6=504      clear LCD 
*
1378:  CLRF   0C
137A:  CLRF   0D
137C:  RCALL  1332
....................    for (ddram=504; ddram>0; ddram--) 
137E:  MOVLW  01
1380:  MOVWF  09
1382:  MOVLW  F8
1384:  MOVWF  08
1386:  MOVF   08,F
1388:  BNZ   138E
138A:  MOVF   09,F
138C:  BZ    139C
....................       nokia_write_data(0x00); 
138E:  CLRF   0F
1390:  RCALL  134C
1392:  MOVF   08,W
1394:  BTFSC  FD8.2
1396:  DECF   09,F
1398:  DECF   08,F
139A:  BRA    1386
139C:  RETURN 0
.................... } 
....................  
.................... void nokia_write_command(char bytefornokia_command) 
.................... { 
....................    output_low(lcd_dc);   // byte is a command it is read with the eight SCLK pulse 
*
1306:  BCF    F92.2
1308:  BCF    F89.2
....................    output_low(lcd_cs);   // chip enabled 
130A:  BCF    F92.3
130C:  BCF    F89.3
....................    delay_us(2); 
130E:  MOVLW  02
1310:  MOVWF  00
1312:  DECFSZ 00,F
1314:  BRA    1312
1316:  BRA    1318
1318:  NOP   
....................    nokia_write_dorc(bytefornokia_command); 
131A:  MOVFF  0F,10
131E:  RCALL  12C8
....................    output_high(lcd_cs);   // chip disabled 
1320:  BCF    F92.3
1322:  BSF    F89.3
....................    delay_us(2); 
1324:  MOVLW  02
1326:  MOVWF  00
1328:  DECFSZ 00,F
132A:  BRA    1328
132C:  BRA    132E
132E:  NOP   
1330:  RETURN 0
.................... } 
....................  
.................... void nokia_write_data(char bytefornokia_data) 
.................... { 
....................    output_high(lcd_dc); 
*
134C:  BCF    F92.2
134E:  BSF    F89.2
....................    output_low(lcd_cs);   // chip enabled 
1350:  BCF    F92.3
1352:  BCF    F89.3
....................    delay_us(2); 
1354:  MOVLW  02
1356:  MOVWF  00
1358:  DECFSZ 00,F
135A:  BRA    1358
135C:  BRA    135E
135E:  NOP   
....................    nokia_write_dorc(bytefornokia_data); 
1360:  MOVFF  0F,10
1364:  RCALL  12C8
....................    output_high(lcd_cs);   // chip disabled 
1366:  BCF    F92.3
1368:  BSF    F89.3
....................    delay_us(2); 
136A:  MOVLW  02
136C:  MOVWF  00
136E:  DECFSZ 00,F
1370:  BRA    136E
1372:  BRA    1374
1374:  NOP   
1376:  RETURN 0
.................... } 
....................  
.................... void nokia_write_dorc(char bytefornokia) {      // serial write data or command subroutine 
....................    char caa; 
....................    for (caa=8;caa>0;caa--) 
*
12C8:  MOVLW  08
12CA:  MOVWF  11
12CC:  MOVF   11,F
12CE:  BZ    1304
....................    { 
....................       output_low(lcd_sclk); 
12D0:  BCF    F92.0
12D2:  BCF    F89.0
....................       delay_us(2); 
12D4:  MOVLW  02
12D6:  MOVWF  00
12D8:  DECFSZ 00,F
12DA:  BRA    12D8
12DC:  BRA    12DE
12DE:  NOP   
....................       output_bit(lcd_sda,(bytefornokia&0x80)); 
12E0:  BTFSC  10.7
12E2:  BRA    12E8
12E4:  BCF    F89.1
12E6:  BRA    12EA
12E8:  BSF    F89.1
12EA:  BCF    F92.1
....................       output_high(lcd_sclk); 
12EC:  BCF    F92.0
12EE:  BSF    F89.0
....................       delay_us(2); 
12F0:  MOVLW  02
12F2:  MOVWF  00
12F4:  DECFSZ 00,F
12F6:  BRA    12F4
12F8:  BRA    12FA
12FA:  NOP   
....................       bytefornokia = bytefornokia << 1; 
12FC:  BCF    FD8.0
12FE:  RLCF   10,F
1300:  DECF   11,F
1302:  BRA    12CC
....................    } 
1304:  RETURN 0
.................... } 
....................  
.................... void nokia_gotoxy(char xnokia, char ynokia) {   // Nokia LCD 3310 Position cursor 
....................    nokia_write_command(0x40|(ynokia&0x07));     // Y axe initialisation: 0100 0yyy 
*
1332:  MOVF   0D,W
1334:  ANDLW  07
1336:  IORLW  40
1338:  MOVWF  0E
133A:  MOVWF  0F
133C:  RCALL  1306
....................    nokia_write_command(0x80|(xnokia&0x7f));     // X axe initialisation: 1xxx xxxx 
133E:  MOVF   0C,W
1340:  ANDLW  7F
1342:  IORLW  80
1344:  MOVWF  0E
1346:  MOVWF  0F
1348:  RCALL  1306
134A:  RETURN 0
.................... } 
....................  
.................... void nokia_contrast (char contrast) { 
....................     nokia_write_command(0x21);                  // LCD Extended Commands. 
....................     nokia_write_command(0x80 | contrast);       // Set LCD Vop (Contrast). 
....................     nokia_write_command(0x20);                  // LCD Standard Commands, horizontal addressing mode. 
.................... } 
....................  
.................... void nokia_printchar(char cvar) {               // Write 1 character to LCD 
....................    charsel=cvar; 
*
1472:  MOVFF  0E,05
....................    table_to_nokialcd(); 
1476:  BRA    13FC
1478:  GOTO   1490 (RETURN)
.................... } 
.................... void nokia_printchar_inverted(char cvar) {               // Write 1 character to LCD 
....................    charsel=cvar; 
....................    table_to_nokialcd_inverted(); 
.................... } 
.................... void table_to_nokialcd() {                      // extract ascii from tables & write to LCD 
....................    if (charsel<0x20) return; 
*
13FC:  MOVF   05,W
13FE:  SUBLW  1F
1400:  BTFSC  FD8.0
1402:  BRA    146E
....................    if (charsel>0x7f) return; 
1404:  MOVF   05,W
1406:  SUBLW  7F
1408:  BTFSS  FD8.0
140A:  BRA    146E
....................  
....................    for (char_row=0;char_row<5;char_row++) 
140C:  CLRF   04
140E:  MOVF   04,W
1410:  SUBLW  04
1412:  BNC   146A
....................       { 
....................          if (charsel<0x50){charpos=(((charsel&0xff)-0x20)*5);chardata=TABLE1[(charpos+char_row)];}   // use TABLE1 
1414:  MOVF   05,W
1416:  SUBLW  4F
1418:  BNC   143A
141A:  MOVF   05,W
141C:  ADDLW  E0
141E:  MULLW  05
1420:  MOVFF  FF3,06
1424:  MOVF   04,W
1426:  ADDWF  06,W
1428:  CLRF   03
142A:  MOVFF  FF2,0F
142E:  BCF    FF2.7
1430:  CALL   0004
1434:  BTFSC  0F.7
1436:  BSF    FF2.7
1438:  MOVWF  07
....................          if (charsel>0x4f){charpos=(((charsel&0xff)-0x50)*5);chardata=TABLE2[(charpos+char_row)];}   // use TABLE2 
143A:  MOVF   05,W
143C:  SUBLW  4F
143E:  BC    1460
1440:  MOVF   05,W
1442:  ADDLW  B0
1444:  MULLW  05
1446:  MOVFF  FF3,06
144A:  MOVF   04,W
144C:  ADDWF  06,W
144E:  CLRF   03
1450:  MOVFF  FF2,0F
1454:  BCF    FF2.7
1456:  CALL   0104
145A:  BTFSC  0F.7
145C:  BSF    FF2.7
145E:  MOVWF  07
....................  
....................          nokia_write_data(chardata);  // send data to nokia 
1460:  MOVFF  07,0F
1464:  RCALL  134C
1466:  INCF   04,F
1468:  BRA    140E
....................       } 
....................          nokia_write_data(0x00);      // 1 byte (always blank) 
146A:  CLRF   0F
146C:  RCALL  134C
146E:  GOTO   1478 (RETURN)
.................... } 
.................... void table_to_nokialcd_inverted() {                      // extract ascii from tables & write to LCD 
....................    if (charsel<0x20) return; 
....................    if (charsel>0x7f) return; 
....................  
....................    for (char_row=0;char_row<5;char_row++) 
....................       { 
....................          if (charsel<0x50){charpos=(((charsel&0xff)-0x20)*5);chardata=TABLE1[(charpos+char_row)];}   // use TABLE1 
....................          if (charsel>0x4f){charpos=(((charsel&0xff)-0x50)*5);chardata=TABLE2[(charpos+char_row)];}   // use TABLE2 
....................  
....................          nokia_write_data(~chardata);  // send data to nokia 
....................       } 
....................          nokia_write_data(0xff);      // 1 byte (always blank) 
.................... } 
.................... void LcdPixel (char x, char y) { 
....................     char offset; 
....................     byte  data; 
....................  
....................     if (x > 84) return; 
....................     if (y > 48) return; 
....................  
....................     offset = y % 8; 
....................     data = (0x01<<offset); 
....................          
....................     nokia_gotoxy(x, (y/8)); 
....................     nokia_write_data(data); 
.................... } 
....................  
....................  
....................  
.................... const unsigned char naruto[504] = {0x00, 0x00, 0x00, 0x00, 0x00, 0x00, 0x00, 0x00, 0x00, 0x00, 0x00, 0x00, 0x00, 0x00, 0x00, 0x00, 0x00, 0x00, 0x00, 0x00, 0x00, 0x00, 0x00, 0x0F, 0x08, 0x00, 0x00, 0x00, 0x00, 0x00, 0x00, 0x00, 0x00, 0x00, 0x00, 0x00, 0x00, 0x00, 0x00, 0x00, 0x00, 0xFF, 0xFF, 0xFF, 0xFF, 0xFF, 0xFF, 0xFF, 0xFF, 0x0F, 0x03, 0x03, 0x23, 0xE3, 0x83, 0x03, 0x33, 0xE7, 0xF7, 0xE7, 0xCF, 0x9F, 0xFF, 0xFF, 0xFF, 0xFF, 0xFF, 0xFF, 0xFF, 0xFF, 0xFF, 0xFF, 0xFF, 0xFF, 0xFF, 0xFF, 0xFF, 0xFF, 0xFF, 0xFF, 0xFF, 0xFF, 0xFF, 0xFF, 0x00, 0x00, 0x00, 0x00, 0x00, 0x00, 0x00, 0x00, 0x00, 0x00, 0x00, 0x00, 0x00, 0x00, 0x00, 0x00, 0x01, 0x03, 0x82, 0xC6, 0x66, 0x66, 0x32, 0x10, 0x00, 0x00, 0x00, 0x00, 0xF8, 0xFC, 0xFC, 0xFC, 0xFC, 0xFC, 0xFC, 0xFC, 0xFC, 0xFC, 0x7C, 0xBC, 0xFC, 0xA7, 0xA7, 0x47, 0x43, 0x43, 0x03, 0x03, 0x03, 0xFF, 0xC0, 0x00, 0x00, 0xFF, 0xFF, 0xFF, 0xFC, 0xFF, 0xFF, 0xFF, 0xFF, 0xFF, 0xFF, 0xFF, 0xFF, 0xFF, 0xFF, 0xFF, 0xFF, 0xFF, 0xFF, 0xFF, 0xFF, 0xFF, 0xFF, 0xFF, 0xFF, 0xFF, 0xFF, 0xFF, 0xFF, 0xFF, 0xFF, 0xFF, 0x00, 0x00, 0x00, 0x00, 0x00, 0x00, 0x00, 0x00, 0x00, 0x00, 0x00, 0x00, 0x00, 0x00, 0x00, 0x00, 0x00, 0x00, 0x00, 0x00, 0x00, 0xE0, 0xE0, 0xE0, 0x00, 0xC0, 0xC0, 0xC0, 0xBF, 0xFF, 0xBF, 0xFF, 0x7F, 0xFF, 0xFF, 0xFF, 0x63, 0x7C, 0x73, 0x6F, 0x7A, 0x84, 0x86, 0x90, 0x8F, 0x80, 0x80, 0x80, 0xC0, 0xFF, 0xFF, 0x58, 0x40, 0x41, 0xFF, 0xFF, 0xFF, 0xFF, 0xFF, 0xFF, 0xFF, 0xFF, 0xFF, 0xFF, 0xFF, 0xFF, 0xFF, 0xFF, 0xFF, 0xFF, 0xFF, 0xFF, 0xFF, 0xFF, 0xFF, 0xFF, 0xFF, 0xFF, 0xFF, 0xFF, 0xFF, 0xFF, 0xFF, 0xFF, 0x00, 0x00, 0x00, 0x00, 0x00, 0x00, 0x00, 0x00, 0x00, 0x00, 0x00, 0x00, 0x00, 0x00, 0x00, 0x00, 0x00, 0x00, 0x00, 0x00, 0x00, 0x0F, 0x3F, 0x7F, 0xFF, 0xFF, 0xFF, 0xFF, 0xFD, 0xFD, 0xFD, 0xF1, 0xF1, 0xF0, 0xFD, 0xFD, 0xFF, 0xFF, 0xFF, 0xFF, 0xFF, 0xF8, 0x00, 0x00, 0x00, 0x31, 0x73, 0xF2, 0xF2, 0x73, 0x32, 0x02, 0x02, 0x01, 0xFF, 0xFF, 0xFF, 0xFF, 0xFF, 0xFF, 0xFF, 0xFF, 0xFF, 0xFF, 0xFF, 0xFF, 0xFF, 0xFF, 0xFF, 0xFF, 0xFF, 0xFF, 0xFF, 0xFF, 0xFF, 0xFF, 0xFF, 0xFF, 0xFF, 0xFF, 0xFF, 0xFF, 0xFF, 0xFF, 0x00, 0x00, 0x00, 0x00, 0x00, 0x00, 0x00, 0x00, 0x00, 0x00, 0x00, 0x00, 0x00, 0x00, 0x00, 0x00, 0x00, 0x00, 0x00, 0x00, 0x00, 0x00, 0x00, 0x00, 0x01, 0x01, 0x03, 0x1F, 0x3F, 0x7F, 0xFF, 0xFF, 0xFF, 0xFF, 0xFF, 0xFF, 0xBF, 0xBF, 0xBF, 0xFF, 0xE7, 0xC7, 0x80, 0x00, 0x00, 0x00, 0x00, 0x00, 0x00, 0x00, 0x80, 0xC0, 0xE0, 0xF8, 0xFF, 0xFF, 0xFF, 0xFF, 0xFF, 0xFF, 0xFF, 0xFF, 0xFF, 0xFF, 0xFF, 0xFF, 0xFF, 0xFF, 0xFF, 0xFF, 0xFF, 0xFF, 0xFF, 0xFF, 0xFF, 0xFF, 0xFF, 0xFF, 0xFF, 0xFF, 0xFF, 0xFF, 0xFF, 0xFF, 0x00, 0x00, 0x00, 0x00, 0x00, 0x00, 0x00, 0x00, 0x00, 0x00, 0x00, 0x00, 0x00, 0x00, 0x00, 0x00, 0x00, 0x00, 0x00, 0x00, 0x00, 0x00, 0x00, 0x00, 0x00, 0x00, 0x00, 0x00, 0x00, 0x00, 0xC0, 0xE1, 0xFB, 0xF7, 0xF7, 0xEF, 0xFF, 0xDF, 0xDF, 0xDE, 0xDE, 0x2C, 0x20, 0x30, 0x10, 0x18, 0x0C, 0x04, 0x06, 0x03, 0xF9, 0xFF, 0xFF, 0xFF, 0xFF, 0xFF, 0xFF, 0xFF, 0xFF, 0xFF, 0xFF, 0xFF, 0xFF, 0xFF, 0xFF, 0xFF, 0xFF, 0xFF, 0xFF, 0xFF, 0xFF, 0xFF, 0xFF, 0xFF, 0xFF, 0xFF, 0xFF, 0xFF, 0xFF, 0xFF, 0xFF, 0xFF, 0xFF, 0xFF }; 
.................... const unsigned char flap[504] = {0xFF, 0xFF, 0xFF, 0xFF, 0xFF, 0xFF, 0xFF, 0xFF, 0xFF, 0xFF, 0xFF, 0x7F, 0x3F, 0x1F, 0x1F, 0x1F, 0x1F, 0x3F, 0x1F, 0x1F, 0xBF, 0xFF, 0xFF, 0xFF, 0xFF, 0xFF, 0xFF, 0xFF, 0xFF, 0xFF, 0xFF, 0xFB, 0xFF, 0xFF, 0xFF, 0xFF, 0xFF, 0xFF, 0xFF, 0xFF, 0xFF, 0xFF, 0xFF, 0xFF, 0xFF, 0xFF, 0xFF, 0xFF, 0xFF, 0xFF, 0x1F, 0x1F, 0x1F, 0x1F, 0x1F, 0x3F, 0x7F, 0xFF, 0xFF, 0xFF, 0xFF, 0xFF, 0xFF, 0xFF, 0xFF, 0xFF, 0xFF, 0xFF, 0xFF, 0xFF, 0xFF, 0x1F, 0x1F, 0x1F, 0xFF, 0xFF, 0xFF, 0xFF, 0xFF, 0xFF, 0xFF, 0xFF, 0xFF, 0xFF, 0xFF, 0xFF, 0xFF, 0xFF, 0xFF, 0xFF, 0xFF, 0xFF, 0xFF, 0xFF, 0xFF, 0x00, 0x00, 0x00, 0xC1, 0xC1, 0xC1, 0x00, 0x00, 0x00, 0xFF, 0x03, 0x01, 0x01, 0x71, 0x01, 0x01, 0x01, 0x01, 0x01, 0x01, 0x71, 0x01, 0x03, 0x03, 0x01, 0x01, 0x01, 0x71, 0x01, 0x03, 0x03, 0xFF, 0x00, 0x00, 0x00, 0x00, 0x00, 0x00, 0xFF, 0x00, 0x00, 0x00, 0x00, 0x00, 0x00, 0xFF, 0x08, 0x08, 0x08, 0xFF, 0x03, 0x01, 0x01, 0xF1, 0xF1, 0xF1, 0x03, 0x01, 0x01, 0x71, 0x00, 0x00, 0x00, 0xFF, 0xFF, 0xFF, 0xFF, 0xFF, 0xFF, 0xFF, 0xFF, 0xFF, 0xFF, 0xFF, 0xFF, 0xFF, 0xFF, 0xFF, 0xFF, 0xFF, 0xFF, 0xFF, 0xFF, 0xFF, 0xF8, 0xF8, 0xF8, 0xFF, 0xFF, 0xFF, 0xFC, 0xF8, 0xF8, 0xFD, 0xFE, 0xFC, 0xF8, 0xF8, 0xF8, 0xF8, 0xFC, 0xE0, 0xC0, 0xC0, 0xF8, 0xF8, 0xFC, 0xFE, 0xE0, 0xC0, 0xC0, 0xE0, 0xF8, 0xFC, 0xFE, 0xFF, 0xFF, 0xFE, 0xC2, 0xC0, 0xE0, 0xF0, 0xFF, 0xF8, 0xF8, 0xF8, 0xF8, 0xF8, 0xFC, 0xFF, 0xF8, 0xF8, 0xF8, 0xFF, 0xF8, 0xF8, 0xF8, 0xFF, 0xFF, 0xFF, 0xFE, 0xFC, 0xF8, 0xF8, 0xF8, 0xF8, 0xF8, 0xFF, 0xFF, 0xFF, 0xFF, 0xFF, 0xFF, 0xFF, 0xFF, 0xFF, 0xFF, 0xFF, 0xFF, 0xFF, 0xFF, 0xFF, 0xFF, 0xFF, 0xFF, 0xFF, 0xFF, 0xFF, 0xFF, 0xFF, 0xFF, 0xFF, 0xFF, 0xFF, 0xFF, 0xFF, 0xFF, 0xFF, 0xFF, 0xFF, 0xFF, 0xFF, 0xFF, 0xFF, 0xFF, 0xFF, 0xFF, 0xFF, 0xFF, 0xFF, 0xFF, 0xFF, 0xFF, 0xFF, 0xFF, 0xFF, 0x7F, 0x3F, 0x3F, 0x7F, 0x3F, 0x7F, 0xFF, 0xFF, 0xFF, 0xFF, 0xFF, 0xFF, 0xFF, 0xFF, 0xFF, 0xFF, 0xFF, 0xFF, 0xFF, 0xFF, 0xFF, 0xFF, 0xFF, 0xFF, 0xFF, 0xFF, 0xFF, 0xFF, 0xFF, 0xFF, 0xFF, 0xFF, 0xFF, 0xFF, 0xFF, 0xFF, 0xFF, 0xFF, 0xFF, 0xFF, 0xFF, 0xFF, 0xFF, 0xFF, 0xFF, 0xFF, 0xFF, 0xFF, 0xFF, 0xFF, 0xFF, 0xFF, 0xFF, 0xFF, 0xFF, 0xFF, 0xFF, 0xFF, 0xFF, 0xFF, 0xFF, 0xFF, 0xFF, 0xFF, 0xFF, 0xFF, 0xFF, 0xFF, 0xFF, 0xFF, 0xFF, 0xFF, 0xFF, 0xFF, 0xFF, 0xFF, 0xFF, 0xFF, 0xFF, 0xFF, 0xFF, 0xFD, 0xF8, 0xC8, 0xC9, 0xC6, 0xC0, 0xBA, 0xFC, 0xFD, 0xFC, 0xFF, 0xFF, 0xFF, 0xFF, 0xFF, 0xFF, 0xFF, 0xFF, 0xFF, 0xFF, 0xFF, 0xFF, 0xFF, 0xFF, 0xFF, 0xFF, 0xFF, 0xFF, 0xFF, 0xFF, 0xFF, 0xFF, 0xFF, 0xFF, 0xFF, 0xFF, 0xFF, 0xFF, 0xFF, 0xFF, 0xFF, 0xFF, 0xFF, 0xFF, 0xFF, 0xFF, 0xFF, 0xFF, 0xFF, 0xFF, 0xFF, 0xFF, 0xFF, 0xFF, 0xFF, 0xFF, 0xFF, 0xFF, 0xFF, 0xFF, 0xFF, 0xFF, 0xFF, 0xFF, 0xFF, 0xFF, 0xFF, 0xFF, 0xFF, 0xFF, 0xFF, 0xFF, 0xFF, 0xFF, 0xFF, 0xFF, 0xFF, 0xFF, 0xFF, 0xFF, 0xFF, 0xFF, 0xFF, 0xFF, 0xFF, 0xFF, 0xFF, 0xFF, 0xFF, 0xFF, 0xFF, 0xFF, 0xFF, 0xFF, 0xFF, 0xFF, 0xFF, 0xFF, 0xFF, 0xFF, 0xFF, 0xFF, 0xFF, 0xFF, 0xFF, 0xFF, 0xFF, 0xFF, 0xFF, 0xFF, 0xFF, 0xFF, 0xFF, 0xFF, 0xFF, 0xFF, 0xFF, 0xFF, 0xFF, 0xFF, 0xFF, 0xFF, 0xFF, 0xFF, 0xFF, 0xFF, 0xFF, 0xFF, 0xFF, 0xFF, 0xFF, 0xFF }; 
.................... const unsigned char flap2[504] = {0xFF, 0xFF, 0xFF, 0xFF, 0xFF, 0xFF, 0xFF, 0xFF, 0xFF, 0xFF, 0xFF, 0xFF, 0xFF, 0xFF, 0xFF, 0xFF, 0xFF, 0xFF, 0xFF, 0xFF, 0xFF, 0xFF, 0xFF, 0xFF, 0xFF, 0xFF, 0xFF, 0xFF, 0xFF, 0xFF, 0xFF, 0xFF, 0xFF, 0xFF, 0xFF, 0xFF, 0xFF, 0xFF, 0xFF, 0xFF, 0xFF, 0xFF, 0xFF, 0xFF, 0xFF, 0xFF, 0xFF, 0xFF, 0xFF, 0xFF, 0xFF, 0xFF, 0xFF, 0xFF, 0xFF, 0xFF, 0xFF, 0xFF, 0xFF, 0xFF, 0xFF, 0xFF, 0xFF, 0xFF, 0xFF, 0xFF, 0xFF, 0xFF, 0xFF, 0xFF, 0xFF, 0xFF, 0xFF, 0xFF, 0xFF, 0xFF, 0xFF, 0xFF, 0xFF, 0xFF, 0xFF, 0xFF, 0xFF, 0xFF, 0xFF, 0xFF, 0xFF, 0xFF, 0xFF, 0xFF, 0xFF, 0xFF, 0xFF, 0xFF, 0xFF, 0xFF, 0xFF, 0xFF, 0xFF, 0xFF, 0xFF, 0xFF, 0xFF, 0xFF, 0xFF, 0x81, 0x81, 0xF5, 0xF5, 0xFF, 0x81, 0xFF, 0x87, 0xB7, 0x87, 0x87, 0xFF, 0x07, 0xB7, 0x87, 0xCF, 0xFF, 0x07, 0xB7, 0x87, 0xFF, 0xC3, 0xC3, 0x1F, 0x03, 0xFF, 0x81, 0x81, 0xA5, 0x81, 0xFF, 0x8B, 0xFF, 0x87, 0x87, 0xF7, 0xF7, 0xFF, 0x87, 0xB7, 0x81, 0xFF, 0xFF, 0xFF, 0xFF, 0xFF, 0xFF, 0xFF, 0xFF, 0xFF, 0xFF, 0xFF, 0xFF, 0xFF, 0xFF, 0xFF, 0xFF, 0xFF, 0xFF, 0xFF, 0xFF, 0xFF, 0xFF, 0xFF, 0xFF, 0xFF, 0xFF, 0xFF, 0xFF, 0xFF, 0xFF, 0xFF, 0xFF, 0xFF, 0xFF, 0xFF, 0xFF, 0xFF, 0xFF, 0xFF, 0xFF, 0xFF, 0xFF, 0xFF, 0xFF, 0xFF, 0xFF, 0xFF, 0xFF, 0xFF, 0xFF, 0xFF, 0xFF, 0xFF, 0xFF, 0xFF, 0xFE, 0xFF, 0xFF, 0xFF, 0xFE, 0xFE, 0xFF, 0xBF, 0xFF, 0xBF, 0xFF, 0xFE, 0xFE, 0xFF, 0xFF, 0xFF, 0xFF, 0xFF, 0xFF, 0xFF, 0xFF, 0xFF, 0xFF, 0xFF, 0xFF, 0xFF, 0xFF, 0xFF, 0xFF, 0xFF, 0xFF, 0xFF, 0xFF, 0xFF, 0xFF, 0xFF, 0xFF, 0xFF, 0xFF, 0xFF, 0xFF, 0xFF, 0xFF, 0xFF, 0xFF, 0xFF, 0xFF, 0xFF, 0xFF, 0xFF, 0xFF, 0xFF, 0xFF, 0xFF, 0xFF, 0xFF, 0xFF, 0xFF, 0xFF, 0xFF, 0xFF, 0xFF, 0xFF, 0xFF, 0xFF, 0xFF, 0xFF, 0xFF, 0xFF, 0xFF, 0xFF, 0xFF, 0xFF, 0xFF, 0xFF, 0xFF, 0xFF, 0xFF, 0xFF, 0xFF, 0xFF, 0xFF, 0xFF, 0x7F, 0xFF, 0xFF, 0xFF, 0xFF, 0xFF, 0xFF, 0xFF, 0xFF, 0xFF, 0xFF, 0xFF, 0xFF, 0xFF, 0xFF, 0xFF, 0xFF, 0xFF, 0xFF, 0xFF, 0xFF, 0xFF, 0xFF, 0xFF, 0xFF, 0xFF, 0xFF, 0xFF, 0xFF, 0xFF, 0xFF, 0xFF, 0xFF, 0xFF, 0xFF, 0xFF, 0xFF, 0xFF, 0xFF, 0xFF, 0xFF, 0xFF, 0xFF, 0xFF, 0xFF, 0xFF, 0xFF, 0xFF, 0xFF, 0xFF, 0xFF, 0xFF, 0xC1, 0xE0, 0xE0, 0xE0, 0xE1, 0xC1, 0xE1, 0xE3, 0xE1, 0xC1, 0xE1, 0xE1, 0xE0, 0xE0, 0xE0, 0xE1, 0xE1, 0xE1, 0xE1, 0xE1, 0xE0, 0xE0, 0xE1, 0xE1, 0xE0, 0xE0, 0xE0, 0xE0, 0xE0, 0xE0, 0xE0, 0xE0, 0xE0, 0xE0, 0xE0, 0xE0, 0xE0, 0xE1, 0xE1, 0xE0, 0xE1, 0xE1, 0xE1, 0xE3, 0xE3, 0xE3, 0xE3, 0xC1, 0xE1, 0xE1, 0xE3, 0xE1, 0xC1, 0xC1, 0xE1, 0xE1, 0xC1, 0xE1, 0xE0, 0xE0, 0xE1, 0xC1, 0xE1, 0xE3, 0xE1, 0xC1, 0xE1, 0xE1, 0xE0, 0xE0, 0xE0, 0xE1, 0xE1, 0xE1, 0xE1, 0xE1, 0xE0, 0xE0, 0xE1, 0xE1, 0xE0, 0xE0, 0xE0, 0xE0, 0x03, 0x03, 0x03, 0x03, 0x03, 0x03, 0x03, 0x03, 0x03, 0x03, 0x03, 0x03, 0x03, 0x03, 0x03, 0x03, 0x03, 0x03, 0x03, 0x03, 0x03, 0x03, 0x03, 0x03, 0x03, 0x03, 0x03, 0x03, 0x03, 0x03, 0x03, 0x03, 0x03, 0x03, 0x03, 0x03, 0x03, 0x03, 0x03, 0x03, 0x03, 0x03, 0x03, 0x03, 0x03, 0x03, 0x03, 0x03, 0x03, 0x03, 0x03, 0x03, 0x03, 0x03, 0x03, 0x03, 0x03, 0x03, 0x03, 0x03, 0x03, 0x03, 0x03, 0x03, 0x03, 0x03, 0x03, 0x03, 0x03, 0x03, 0x03, 0x03, 0x03, 0x03, 0x03, 0x03, 0x03, 0x03, 0x03, 0x03, 0x03, 0x03, 0x03, 0x03 };  
.................... const unsigned char logo[504] = {0xF0, 0xF0, 0xF0, 0xF0, 0xF0, 0xF0, 0xF0, 0xF0, 0xF0, 0xF0, 0xF0, 0xE0, 0xF0, 0xF0, 0xF0, 0x70, 0x70, 0xF0, 0xF0, 0xF0, 0xF0, 0xF0, 0xF0, 0xF0, 0xF0, 0xF0, 0xF0, 0xF0, 0xF0, 0xF0, 0xF0, 0xF0, 0xF0, 0xF0, 0xF0, 0xF0, 0xF0, 0xF0, 0xF0, 0xF0, 0xF0, 0xF0, 0xF0, 0xF0, 0xF0, 0xF0, 0xF0, 0xF0, 0xF0, 0xF0, 0xF0, 0xF0, 0xF0, 0xF0, 0xF0, 0xF0, 0xF0, 0xF0, 0xF0, 0xF0, 0xF0, 0xF0, 0xF0, 0xF0, 0xF0, 0xF0, 0xF0, 0xF0, 0xF0, 0xF0, 0xF0, 0x70, 0xB0, 0xD0, 0xF0, 0xE0, 0x70, 0x30, 0x00, 0x00, 0x00, 0x00, 0x00, 0x00, 0xFF, 0xFF, 0xFF, 0xFF, 0xFF, 0xFF, 0xFF, 0xFF, 0xFF, 0xFF, 0xFF, 0xFF, 0xFF, 0xFF, 0xFF, 0xFE, 0xFF, 0xFF, 0xFF, 0xF7, 0xF7, 0xF7, 0xFF, 0xFF, 0x7F, 0xFF, 0x7F, 0xFF, 0xFF, 0xFF, 0xFF, 0xFF, 0xFF, 0xFF, 0xFF, 0xFF, 0xFF, 0xFF, 0xFF, 0xFF, 0x7F, 0x7F, 0x3F, 0x3F, 0x0F, 0x1F, 0x1F, 0xFF, 0xFF, 0xFF, 0xFF, 0xFF, 0xFF, 0xFF, 0xFF, 0xFF, 0xFF, 0xFF, 0xFF, 0xFF, 0xFF, 0x7F, 0xBF, 0xDF, 0xFF, 0xEF, 0x77, 0x3B, 0x1D, 0x1E, 0x0F, 0x07, 0x03, 0x01, 0x01, 0x00, 0x00, 0x00, 0x00, 0x00, 0x00, 0x00, 0x00, 0x00, 0xFF, 0xFF, 0xF6, 0xF6, 0x17, 0x16, 0x16, 0x17, 0x16, 0x16, 0xF7, 0xF7, 0xFE, 0x1E, 0x7E, 0x5F, 0xDE, 0xDF, 0x1E, 0x1E, 0x1F, 0x1E, 0xFE, 0x42, 0xC2, 0xC3, 0xC2, 0xC2, 0x47, 0xC2, 0xC2, 0xC3, 0x42, 0xF6, 0x7F, 0x1F, 0x5F, 0x9E, 0xDE, 0x1D, 0x00, 0x02, 0x05, 0xCB, 0xE9, 0xE6, 0xE0, 0xF0, 0xFC, 0xFD, 0xFC, 0x7F, 0xBF, 0xFF, 0xFF, 0xEF, 0x77, 0x3B, 0x1D, 0x1F, 0x0E, 0x07, 0x03, 0x01, 0x01, 0x00, 0x00, 0x00, 0x00, 0x00, 0x00, 0x00, 0x00, 0x00, 0x00, 0x00, 0x00, 0x00, 0x00, 0x00, 0x00, 0x00, 0x00, 0x00, 0x0F, 0x0F, 0x0F, 0x0F, 0x0C, 0x0C, 0x0C, 0x0C, 0x0C, 0x0C, 0x0F, 0x0F, 0x0F, 0x0E, 0x0E, 0x0C, 0x0C, 0x0C, 0x0C, 0x0C, 0x0C, 0x0C, 0x0F, 0x0C, 0x0C, 0x0C, 0x0C, 0x0C, 0x0C, 0x0C, 0x0C, 0x0C, 0x0C, 0x0C, 0x0F, 0x0E, 0x0C, 0x0C, 0x0C, 0x0C, 0x0C, 0x0C, 0x0C, 0x0F, 0x0F, 0x0F, 0x0F, 0x07, 0x05, 0x07, 0x0E, 0x07, 0x03, 0x03, 0x01, 0x00, 0x00, 0x00, 0x00, 0x00, 0x00, 0x00, 0x00, 0x00, 0x00, 0x00, 0x00, 0x00, 0x00, 0x00, 0x00, 0x00, 0x00, 0x00, 0x00, 0x00, 0x00, 0x00, 0x00, 0x00, 0x00, 0x00, 0x00, 0x00, 0x00, 0x00, 0x00, 0xF8, 0x38, 0xE0, 0x00, 0x00, 0x70, 0x38, 0xF8, 0xE0, 0x00, 0x00, 0x80, 0xE0, 0x00, 0x40, 0x20, 0x20, 0xA0, 0xC0, 0x00, 0x00, 0xF8, 0x00, 0x00, 0x00, 0x00, 0xE8, 0x00, 0xE0, 0x20, 0x20, 0x60, 0xC0, 0x00, 0xF8, 0x20, 0x20, 0x60, 0xC0, 0x00, 0x00, 0xF8, 0xC0, 0xE0, 0xB0, 0x18, 0x08, 0xE8, 0x00, 0xC0, 0x60, 0x20, 0x20, 0xC0, 0x00, 0xE0, 0x20, 0x20, 0xE0, 0xC0, 0x00, 0x00, 0x00, 0x00, 0x08, 0x70, 0x80, 0x00, 0xC0, 0x70, 0x08, 0xE0, 0x20, 0x20, 0xE0, 0xC0, 0x00, 0x00, 0x00, 0x00, 0x00, 0x00, 0x00, 0x00, 0x07, 0x00, 0x00, 0x06, 0x07, 0x00, 0x04, 0x07, 0x07, 0x04, 0x04, 0x07, 0x07, 0x00, 0x07, 0x05, 0x05, 0x03, 0x07, 0x00, 0x00, 0x07, 0x04, 0x04, 0x04, 0x04, 0x07, 0x00, 0x07, 0x00, 0x00, 0x02, 0x07, 0x00, 0x07, 0x00, 0x00, 0x00, 0x07, 0x00, 0x00, 0x07, 0x00, 0x00, 0x01, 0x03, 0x04, 0x07, 0x00, 0x03, 0x05, 0x05, 0x05, 0x05, 0x00, 0x07, 0x00, 0x00, 0x07, 0x07, 0x00, 0x00, 0x04, 0x00, 0x00, 0x00, 0x01, 0x06, 0x03, 0x00, 0x00, 0x07, 0x00, 0x00, 0x07, 0x07, 0x00, 0x00, 0x00, 0x00, 0x00 };  
.................... const unsigned char android[504] = {0x00, 0x00, 0x00, 0x00, 0x00, 0x00, 0x00, 0x00, 0x00, 0x00, 0x00, 0x00, 0x00, 0x00, 0x00, 0x00, 0x00, 0x00, 0x00, 0x00, 0x00, 0x00, 0x00, 0x00, 0x00, 0x00, 0x00, 0x00, 0x00, 0x00, 0x00, 0x80, 0xC8, 0xF0, 0xE0, 0xE0, 0xE0, 0xE0, 0xE0, 0xE0, 0xE0, 0x60, 0xF0, 0xC8, 0x80, 0x00, 0x00, 0x00, 0x00, 0x00, 0x00, 0x00, 0x00, 0x00, 0x00, 0x00, 0x00, 0x00, 0x00, 0x00, 0x00, 0x00, 0x00, 0x00, 0x00, 0x00, 0x00, 0x00, 0x00, 0x00, 0x00, 0x00, 0x00, 0x00, 0x00, 0x00, 0x00, 0x00, 0x00, 0x00, 0x00, 0x00, 0x00, 0x00, 0x00, 0x00, 0x00, 0x00, 0x00, 0x00, 0x00, 0x00, 0x00, 0x00, 0x00, 0x00, 0x00, 0x00, 0x00, 0x00, 0x00, 0x00, 0x00, 0x00, 0x00, 0x00, 0x00, 0x00, 0xC0, 0xE0, 0xE0, 0x80, 0x00, 0xEC, 0xEF, 0xEF, 0xEF, 0xEE, 0xEE, 0xEF, 0xEF, 0xEF, 0xEF, 0xEF, 0xEF, 0xEE, 0xEE, 0xEF, 0xEF, 0xEF, 0xEC, 0x00, 0xC0, 0xE0, 0xE0, 0xC0, 0x00, 0x00, 0x00, 0x00, 0x00, 0x00, 0x00, 0x00, 0x00, 0x00, 0x00, 0x00, 0x00, 0x00, 0x00, 0x00, 0x00, 0x00, 0x00, 0x00, 0x00, 0x00, 0x00, 0x00, 0x00, 0x00, 0x00, 0x00, 0x00, 0x00, 0x00, 0x00, 0x00, 0x00, 0x00, 0x00, 0x00, 0x00, 0x00, 0x00, 0x00, 0x00, 0x00, 0x00, 0x00, 0x00, 0x00, 0x00, 0x00, 0x00, 0x00, 0x00, 0x00, 0x00, 0x00, 0x00, 0xFF, 0xFF, 0xFF, 0xFF, 0x00, 0xFF, 0xFF, 0xFF, 0xFF, 0xFF, 0xFF, 0xFF, 0xFF, 0xFF, 0xFF, 0xFF, 0xFF, 0xFF, 0xFF, 0xFF, 0xFF, 0xFF, 0xFF, 0x00, 0xFF, 0xFF, 0xFF, 0xFF, 0x00, 0x00, 0x00, 0x00, 0x00, 0x00, 0x00, 0x00, 0x00, 0x00, 0x00, 0x00, 0x00, 0x00, 0x00, 0x00, 0x00, 0x00, 0x00, 0x00, 0x00, 0x00, 0x00, 0x00, 0x00, 0x00, 0x00, 0x00, 0x00, 0x00, 0x00, 0x00, 0x00, 0x00, 0x00, 0x00, 0x00, 0x00, 0x00, 0x00, 0x00, 0x00, 0x00, 0x00, 0x00, 0x00, 0x00, 0x00, 0x00, 0x00, 0x00, 0x00, 0x00, 0x00, 0x00, 0x00, 0x01, 0x01, 0x01, 0x00, 0x00, 0x1F, 0x1F, 0x1F, 0xFF, 0xFF, 0xFF, 0xFF, 0x1F, 0x1F, 0x1F, 0x3F, 0xFF, 0xFF, 0xFF, 0x3F, 0x1F, 0x1F, 0x1F, 0x00, 0x01, 0x01, 0x01, 0x01, 0x00, 0x00, 0x00, 0x00, 0x00, 0x00, 0x00, 0x00, 0x00, 0x00, 0x00, 0x00, 0x00, 0x00, 0x00, 0x00, 0x00, 0x00, 0x00, 0x00, 0x00, 0x00, 0x00, 0x00, 0x00, 0x00, 0x00, 0x00, 0x00, 0x00, 0x00, 0x00, 0x00, 0x00, 0x00, 0x00, 0x00, 0x00, 0x00, 0x00, 0x00, 0x00, 0x00, 0x00, 0x00, 0x00, 0x00, 0x00, 0x00, 0x00, 0x80, 0xC0, 0x40, 0x40, 0x40, 0xC0, 0x00, 0x80, 0xC0, 0x40, 0x40, 0xC0, 0x80, 0x00, 0x47, 0x4F, 0x4F, 0x47, 0xC0, 0x00, 0x00, 0x40, 0x4F, 0x4F, 0x4F, 0xC0, 0x00, 0x00, 0xC0, 0x40, 0x40, 0x40, 0x80, 0x00, 0xC0, 0xC0, 0x00, 0x40, 0x40, 0x40, 0x40, 0x80, 0x00, 0x00, 0x00, 0x00, 0x00, 0x00, 0x00, 0x00, 0x00, 0x00, 0x00, 0x00, 0x00, 0x00, 0x00, 0x00, 0x00, 0x00, 0x00, 0x00, 0x00, 0x00, 0x00, 0x00, 0x00, 0x00, 0x00, 0x00, 0x00, 0x00, 0x00, 0x00, 0x00, 0x00, 0x00, 0x00, 0x00, 0x00, 0x00, 0x00, 0x00, 0x00, 0x03, 0x06, 0x04, 0x04, 0x00, 0x07, 0x00, 0x0F, 0x00, 0x00, 0x00, 0x00, 0x07, 0x00, 0x0C, 0x04, 0x04, 0x04, 0x07, 0x01, 0x00, 0x03, 0x03, 0x02, 0x03, 0x07, 0x00, 0x01, 0x07, 0x04, 0x04, 0x04, 0x03, 0x00, 0x07, 0x07, 0x00, 0x04, 0x04, 0x04, 0x04, 0x07, 0x00, 0x00, 0x00, 0x00, 0x00, 0x00, 0x00, 0x00, 0x00, 0x00, 0x00, 0x00, 0x00, 0x00, 0x00, 0x00, 0x00, 0x00, 0x00, 0x00, 0x00, 0x00, 0x00, 0x00 }; 
.................... const unsigned char google[504] = {0x00, 0x00, 0x80, 0xC0, 0xC0, 0x70, 0x30, 0x3C, 0x0C, 0x0C, 0x0C, 0x0C, 0x3C, 0x3C, 0x7C, 0xF0, 0xF0, 0x40, 0x00, 0x00, 0x00, 0x00, 0x00, 0x00, 0x00, 0x00, 0x00, 0x00, 0x00, 0x00, 0x00, 0x00, 0x00, 0x00, 0x00, 0x00, 0x00, 0x00, 0x00, 0x00, 0x00, 0x00, 0x00, 0x00, 0x00, 0x00, 0x00, 0x00, 0x00, 0x00, 0x00, 0x00, 0x00, 0x00, 0x00, 0x00, 0x00, 0x00, 0x00, 0x00, 0x00, 0x00, 0x03, 0x03, 0xFF, 0xFF, 0xFF, 0x00, 0x00, 0x00, 0x00, 0x00, 0x00, 0x00, 0x00, 0x00, 0x00, 0x00, 0x00, 0x00, 0x00, 0x00, 0x00, 0x00, 0xF0, 0xFE, 0xFF, 0x0F, 0x01, 0x00, 0x00, 0x00, 0x00, 0x00, 0x00, 0x00, 0x00, 0x00, 0x00, 0x07, 0x01, 0x00, 0x00, 0x00, 0x00, 0x00, 0xC0, 0xF0, 0x30, 0x30, 0x38, 0x38, 0x30, 0xF0, 0xF0, 0xC0, 0x00, 0x00, 0x00, 0x00, 0x00, 0xC0, 0xF0, 0x30, 0x38, 0x38, 0x38, 0xF0, 0xF0, 0xF0, 0xC0, 0x00, 0x00, 0x00, 0x00, 0xC0, 0xC0, 0xF0, 0x30, 0x30, 0xF0, 0xF0, 0xF0, 0xF0, 0x30, 0x30, 0x00, 0x00, 0xFF, 0xFF, 0xFF, 0x00, 0x00, 0x00, 0xC0, 0xF0, 0x30, 0x30, 0x38, 0x38, 0xF0, 0xF0, 0xC0, 0x00, 0x00, 0x30, 0x30, 0xF0, 0xFF, 0xFF, 0xFF, 0x80, 0x00, 0x00, 0x00, 0x00, 0x00, 0x00, 0x00, 0x00, 0x00, 0x80, 0x80, 0x80, 0x80, 0x80, 0x80, 0x00, 0xFC, 0xFF, 0xFF, 0x00, 0x00, 0x00, 0x00, 0x00, 0x00, 0x03, 0x1F, 0xFF, 0xFF, 0xF8, 0x00, 0xFC, 0xFF, 0xFF, 0x00, 0x00, 0x00, 0x00, 0x00, 0x00, 0x03, 0x7F, 0xFF, 0xFF, 0xF8, 0x00, 0xFF, 0xFF, 0xE3, 0x00, 0x00, 0x00, 0x00, 0x03, 0xFF, 0xFF, 0xFC, 0x00, 0x00, 0x00, 0xFF, 0xFF, 0xFF, 0x00, 0xE0, 0xFF, 0xFF, 0x63, 0x60, 0x60, 0x78, 0x18, 0x1C, 0x07, 0x07, 0x03, 0x00, 0x00, 0x00, 0x00, 0x00, 0x0F, 0x3F, 0x7F, 0xFC, 0xF0, 0xC0, 0x80, 0x80, 0x00, 0x00, 0x00, 0x03, 0x03, 0x03, 0xFF, 0xFF, 0xFF, 0x00, 0x00, 0x3F, 0x7F, 0xFF, 0xF0, 0xC0, 0x80, 0x00, 0x00, 0x00, 0x80, 0xC0, 0x7F, 0x3F, 0x03, 0x00, 0x3F, 0x7F, 0xFF, 0xF0, 0x80, 0x80, 0x00, 0x00, 0x80, 0x80, 0xF0, 0x7F, 0x3F, 0x03, 0x00, 0x03, 0x0F, 0x0F, 0x3F, 0x3C, 0xF0, 0xFC, 0xFC, 0x8F, 0x03, 0x00, 0x00, 0x00, 0x80, 0xFF, 0xFF, 0xFF, 0x80, 0x00, 0x3F, 0x7F, 0xFF, 0xF0, 0xC0, 0x80, 0x80, 0x80, 0x80, 0x80, 0x80, 0x00, 0x00, 0x00, 0x00, 0x00, 0x00, 0x00, 0x00, 0x01, 0x07, 0x07, 0x07, 0x07, 0x06, 0x06, 0x06, 0x06, 0x06, 0x06, 0x07, 0x01, 0x01, 0x00, 0x00, 0x00, 0x00, 0x01, 0x01, 0x07, 0x07, 0x06, 0x06, 0x06, 0x07, 0x01, 0x00, 0x00, 0x00, 0x00, 0x00, 0x00, 0x01, 0x01, 0x07, 0x07, 0x06, 0x06, 0x07, 0x01, 0x01, 0x00, 0x00, 0x00, 0xF0, 0xF0, 0x38, 0x08, 0x0E, 0x0E, 0x07, 0x07, 0x0F, 0x3F, 0xFE, 0xF8, 0xF0, 0x00, 0x07, 0x07, 0x07, 0x07, 0x07, 0x00, 0x00, 0x00, 0x01, 0x07, 0x07, 0x07, 0x07, 0x07, 0x07, 0x01, 0x01, 0x00, 0x00, 0x00, 0x00, 0x00, 0x00, 0x00, 0x00, 0x00, 0x00, 0x00, 0x00, 0x00, 0x00, 0x00, 0x00, 0x00, 0x00, 0x00, 0x00, 0x00, 0x00, 0x00, 0x00, 0x00, 0x00, 0x00, 0x00, 0x00, 0x00, 0x00, 0x00, 0x00, 0x00, 0x00, 0x00, 0x00, 0x00, 0x00, 0x00, 0x00, 0x00, 0x00, 0x00, 0x00, 0x00, 0x00, 0x00, 0x00, 0x00, 0x00, 0x00, 0x07, 0x7F, 0x7F, 0xF8, 0xE0, 0xE0, 0x80, 0x80, 0x80, 0xE0, 0x60, 0x78, 0x1F, 0x07, 0x00, 0x00, 0x00, 0x00, 0x00, 0x00, 0x00, 0x00, 0x00, 0x00, 0x00, 0x00, 0x00, 0x00, 0x00, 0x00, 0x00, 0x00, 0x00, 0x00, 0x00, 0x00 }; 
.................... const unsigned char apple[504] = {0x00, 0x00, 0x00, 0x00, 0x00, 0x00, 0x00, 0x00, 0x00, 0x00, 0x00, 0x00, 0x00, 0x00, 0x00, 0x00, 0x00, 0x00, 0x00, 0x00, 0x00, 0x00, 0x00, 0x00, 0x00, 0x00, 0x00, 0x00, 0x00, 0x00, 0x00, 0x00, 0x00, 0x00, 0x00, 0x00, 0x00, 0x00, 0x80, 0xE0, 0xF0, 0xF8, 0xFC, 0xFE, 0xFE, 0x7F, 0x3F, 0x07, 0x00, 0x00, 0x00, 0x00, 0x00, 0x00, 0x00, 0x00, 0x00, 0x00, 0x00, 0x00, 0x00, 0x00, 0x00, 0x00, 0x00, 0x00, 0x00, 0x00, 0x00, 0x00, 0x00, 0x00, 0x00, 0x00, 0x00, 0x00, 0x00, 0x00, 0x00, 0x00, 0x00, 0x00, 0x00, 0x00, 0x00, 0x00, 0x00, 0x00, 0x00, 0x00, 0x00, 0x00, 0x00, 0x00, 0x00, 0x00, 0x00, 0x00, 0x00, 0x00, 0x00, 0x00, 0x00, 0x00, 0x00, 0x80, 0xC0, 0xE0, 0xF0, 0xF0, 0xF8, 0xF8, 0xF8, 0xF8, 0xF8, 0xF8, 0xF8, 0xF8, 0xF8, 0xF8, 0xF0, 0xF0, 0xF7, 0xF7, 0xF7, 0xF7, 0xFB, 0xF9, 0xF9, 0xF8, 0xFC, 0xFC, 0xFC, 0xFC, 0xF8, 0xF8, 0xF8, 0xF0, 0xE0, 0xE0, 0xC0, 0x00, 0x00, 0x00, 0x00, 0x00, 0x00, 0x00, 0x00, 0x00, 0x00, 0x00, 0x00, 0x00, 0x00, 0x00, 0x00, 0x00, 0x00, 0x00, 0x00, 0x00, 0x00, 0x00, 0x00, 0x00, 0x00, 0x00, 0x00, 0x00, 0x00, 0x00, 0x00, 0x00, 0x00, 0x00, 0x00, 0x00, 0x00, 0x00, 0x00, 0x00, 0x00, 0x00, 0x00, 0x00, 0x00, 0xF8, 0xFE, 0xFF, 0xFF, 0xFF, 0xFF, 0xFF, 0xFF, 0xFF, 0xFF, 0xFF, 0xFF, 0xFF, 0xFF, 0xFF, 0xFF, 0xFF, 0xFF, 0xFF, 0xFF, 0xFF, 0xFF, 0xFF, 0xFF, 0xFF, 0xFF, 0xFF, 0xFF, 0xFF, 0xFF, 0xFF, 0xFF, 0xFF, 0x1F, 0x07, 0x01, 0x00, 0x00, 0x00, 0x00, 0x00, 0x00, 0x00, 0x00, 0x00, 0x00, 0x00, 0x00, 0x00, 0x00, 0x00, 0x00, 0x00, 0x00, 0x00, 0x00, 0x00, 0x00, 0x00, 0x00, 0x00, 0x00, 0x00, 0x00, 0x00, 0x00, 0x00, 0x00, 0x00, 0x00, 0x00, 0x00, 0x00, 0x00, 0x00, 0x00, 0x00, 0x00, 0x00, 0x00, 0x00, 0x00, 0x00, 0x00, 0x7F, 0xFF, 0xFF, 0xFF, 0xFF, 0xFF, 0xFF, 0xFF, 0xFF, 0xFF, 0xFF, 0xFF, 0xFF, 0xFF, 0xFF, 0xFF, 0xFF, 0xFF, 0xFF, 0xFF, 0xFF, 0xFF, 0xFF, 0xFF, 0xFF, 0xFF, 0xFF, 0xFF, 0xFF, 0xFF, 0xFF, 0xFF, 0xFF, 0xF8, 0xC0, 0x80, 0x00, 0x00, 0x00, 0x00, 0x00, 0x00, 0x00, 0x00, 0x00, 0x00, 0x00, 0x00, 0x00, 0x00, 0x00, 0x00, 0x00, 0x00, 0x00, 0x00, 0x00, 0x00, 0x00, 0x00, 0x00, 0x00, 0x00, 0x00, 0x00, 0x00, 0x00, 0x00, 0x00, 0x00, 0x00, 0x00, 0x00, 0x00, 0x00, 0x00, 0x00, 0x00, 0x00, 0x00, 0x00, 0x00, 0x00, 0x00, 0x00, 0x03, 0x0F, 0x3F, 0xFF, 0xFF, 0xFF, 0xFF, 0xFF, 0xFF, 0xFF, 0xFF, 0xFF, 0xFF, 0xFF, 0xFF, 0xFF, 0xFF, 0xFF, 0xFF, 0xFF, 0xFF, 0xFF, 0xFF, 0xFF, 0xFF, 0xFF, 0xFF, 0xFF, 0xFF, 0xFF, 0xFF, 0xFF, 0xFF, 0xFF, 0xFF, 0x7F, 0x3E, 0x0E, 0x00, 0x00, 0x00, 0x00, 0x00, 0x00, 0x00, 0x00, 0x00, 0x00, 0x00, 0x00, 0x00, 0x00, 0x00, 0x00, 0x00, 0x00, 0x00, 0x00, 0x00, 0x00, 0x00, 0x00, 0x00, 0x00, 0x00, 0x00, 0x00, 0x00, 0x00, 0x00, 0x00, 0x00, 0x00, 0x00, 0x00, 0x00, 0x00, 0x00, 0x00, 0x00, 0x00, 0x00, 0x00, 0x00, 0x00, 0x00, 0x00, 0x00, 0x01, 0x07, 0x0F, 0x1F, 0x1F, 0x3F, 0x3F, 0x3F, 0x3F, 0x3F, 0x3F, 0x1F, 0x1F, 0x1F, 0x0F, 0x0F, 0x0F, 0x1F, 0x1F, 0x1F, 0x3F, 0x3F, 0x3F, 0x3F, 0x3F, 0x3F, 0x1F, 0x0F, 0x07, 0x03, 0x01, 0x00, 0x00, 0x00, 0x00, 0x00, 0x00, 0x00, 0x00, 0x00, 0x00, 0x00, 0x00, 0x00, 0x00, 0x00, 0x00, 0x00, 0x00, 0x00, 0x00, 0x00, 0x00, 0x00, 0x00, 0x00, 0x00, 0x00, 0x00, 0x00 }; 
.................... const unsigned char facebook[504] = {0x00, 0x00, 0x00, 0x00, 0x00, 0x00, 0x00, 0x00, 0x00, 0x00, 0x00, 0x00, 0x00, 0x00, 0x00, 0x00, 0x00, 0x00, 0x00, 0x00, 0x00, 0x00, 0x00, 0x00, 0x00, 0x00, 0x00, 0x00, 0x00, 0x00, 0x00, 0x00, 0x00, 0x00, 0x00, 0x00, 0x00, 0x00, 0x00, 0x00, 0x00, 0x00, 0x00, 0x00, 0x00, 0x00, 0x00, 0x00, 0x00, 0x00, 0x00, 0x00, 0x00, 0x00, 0x00, 0x00, 0x00, 0x00, 0x00, 0x00, 0x00, 0x00, 0x00, 0x00, 0x00, 0x00, 0x00, 0x00, 0x00, 0x00, 0x00, 0x00, 0x00, 0x00, 0x00, 0x00, 0x00, 0x00, 0x00, 0x00, 0x00, 0x00, 0x00, 0x00, 0x00, 0x00, 0x00, 0x00, 0x00, 0x00, 0x00, 0x00, 0x00, 0x00, 0x00, 0xC0, 0xC0, 0xC0, 0xC0, 0x40, 0x00, 0x00, 0x00, 0x00, 0x00, 0x00, 0x00, 0x00, 0x00, 0x00, 0x00, 0x00, 0x00, 0x00, 0x00, 0x00, 0x00, 0x00, 0x00, 0x00, 0x00, 0x00, 0x00, 0x00, 0x80, 0xC0, 0xC0, 0x00, 0x00, 0x00, 0x00, 0x00, 0x00, 0x00, 0x00, 0x00, 0x00, 0x00, 0x00, 0x00, 0x00, 0x00, 0x00, 0x00, 0x00, 0x00, 0x00, 0x00, 0x00, 0x00, 0x00, 0xC0, 0xC0, 0xC0, 0x00, 0x00, 0x00, 0x00, 0x00, 0x00, 0x00, 0x00, 0x00, 0x00, 0x00, 0x00, 0x00, 0x00, 0x00, 0x00, 0x00, 0x00, 0x00, 0x00, 0x00, 0x00, 0x00, 0xF0, 0xFE, 0xFF, 0xFF, 0xF3, 0xF1, 0x01, 0xF0, 0xF0, 0xF0, 0xF0, 0xF0, 0xE0, 0xC0, 0x00, 0xC0, 0xE0, 0xF0, 0xF0, 0xF0, 0xF0, 0xE0, 0x00, 0xE0, 0xF0, 0xF0, 0x70, 0xF0, 0xE0, 0xC0, 0x00, 0xFF, 0xFF, 0xFF, 0xF0, 0xF0, 0xF0, 0xF0, 0xE0, 0x00, 0xC0, 0xE0, 0xF0, 0xF0, 0xF0, 0xF0, 0xE0, 0xC0, 0x00, 0xC0, 0xE0, 0xF0, 0xF0, 0xF0, 0xF0, 0xE0, 0x80, 0x00, 0xFF, 0xFF, 0xFF, 0x00, 0xE0, 0xF0, 0xF0, 0x30, 0x00, 0x00, 0x00, 0x00, 0x00, 0x00, 0x00, 0x00, 0x00, 0x00, 0x00, 0x00, 0x00, 0x00, 0x00, 0x00, 0x00, 0x00, 0x00, 0xFF, 0xFF, 0xFF, 0x00, 0x00, 0xF0, 0xF8, 0xFC, 0x9C, 0x9C, 0xFF, 0xFF, 0xFF, 0x00, 0xFF, 0xFF, 0xFF, 0x80, 0x80, 0xC0, 0xC0, 0x7F, 0xFF, 0xFF, 0xDC, 0x9C, 0x9F, 0x9F, 0xDF, 0x00, 0xFF, 0xFF, 0xFF, 0x80, 0x80, 0xFF, 0xFF, 0xFF, 0x00, 0xFF, 0xFF, 0xFF, 0x80, 0x80, 0xFF, 0xFF, 0xFF, 0x00, 0xFF, 0xFF, 0xFF, 0x80, 0xC0, 0xFF, 0xFF, 0xFF, 0x00, 0xFF, 0xFF, 0xDE, 0x3F, 0xFF, 0xF7, 0xC0, 0x00, 0x00, 0x80, 0x00, 0x00, 0x00, 0x00, 0x00, 0x00, 0x00, 0x00, 0x00, 0x00, 0x00, 0x00, 0x00, 0x00, 0x00, 0x00, 0x00, 0x03, 0x03, 0x03, 0x00, 0x00, 0x01, 0x03, 0x03, 0x03, 0x03, 0x03, 0x03, 0x03, 0x00, 0x01, 0x03, 0x03, 0x03, 0x03, 0x03, 0x03, 0x00, 0x01, 0x03, 0x03, 0x03, 0x03, 0x03, 0x03, 0x00, 0x03, 0x03, 0x03, 0x03, 0x03, 0x03, 0x03, 0x01, 0x00, 0x00, 0x01, 0x03, 0x03, 0x03, 0x03, 0x01, 0x00, 0x00, 0x00, 0x03, 0x03, 0x03, 0x03, 0x03, 0x01, 0x00, 0x00, 0x03, 0x03, 0x03, 0x00, 0x01, 0x03, 0x03, 0x02, 0x00, 0x03, 0x00, 0x00, 0x00, 0x00, 0x00, 0x00, 0x00, 0x00, 0x00, 0x00, 0x00, 0x00, 0x00, 0x00, 0x00, 0x00, 0x00, 0x00, 0x00, 0x00, 0x00, 0x00, 0x00, 0x00, 0x00, 0x00, 0x00, 0x00, 0x00, 0x00, 0x00, 0x00, 0x00, 0x00, 0x00, 0x00, 0x00, 0x00, 0x00, 0x00, 0x00, 0x00, 0x00, 0x00, 0x00, 0x00, 0x00, 0x00, 0x00, 0x00, 0x00, 0x00, 0x00, 0x00, 0x00, 0x00, 0x00, 0x00, 0x00, 0x00, 0x00, 0x00, 0x00, 0x00, 0x00, 0x00, 0x00, 0x00, 0x00, 0x00, 0x00, 0x00, 0x00, 0x00, 0x00, 0x00, 0x00, 0x00, 0x00, 0x00, 0x00, 0x00, 0x00, 0x00, 0x00, 0x00, 0x00, 0x00, 0x00, 0x00, 0x00 }; 
....................  VOID init () 
....................  { 
....................     setup_adc_ports (NO_ANALOGS); 
*
149C:  MOVF   FC1,W
149E:  ANDLW  C0
14A0:  IORLW  0F
14A2:  MOVWF  FC1
....................     setup_adc (ADC_OFF) ; 
14A4:  BCF    FC2.0
....................     setup_spi (FALSE); 
14A6:  CLRF   FC6
....................     enable_interrupts (INT_RDA); 
14A8:  BSF    F9D.5
....................     enable_interrupts (GLOBAL); 
14AA:  MOVLW  C0
14AC:  IORWF  FF2,F
....................     nokia_init (); 
14AE:  BRA    139E
....................      
....................     nokia_clean_ddram () ; 
14B0:  RCALL  1378
....................     nokia_gotoxy (0, 0); 
14B2:  CLRF   0C
14B4:  CLRF   0D
14B6:  RCALL  1332
....................     printf (nokia_printchar, "Laptrinhpic.info"); 
14B8:  MOVLW  34
14BA:  MOVWF  FF6
14BC:  MOVLW  12
14BE:  MOVWF  FF7
14C0:  RCALL  147C
....................     nokia_gotoxy (0, 1); 
14C2:  CLRF   0C
14C4:  MOVLW  01
14C6:  MOVWF  0D
14C8:  RCALL  1332
....................     printf (nokia_printchar, "Mualinhkien.vn"); 
14CA:  MOVLW  46
14CC:  MOVWF  FF6
14CE:  MOVLW  12
14D0:  MOVWF  FF7
14D2:  RCALL  147C
....................     nokia_gotoxy (0, 2); 
14D4:  CLRF   0C
14D6:  MOVLW  02
14D8:  MOVWF  0D
14DA:  RCALL  1332
....................     printf (nokia_printchar, "LCD 5110"); 
14DC:  MOVLW  56
14DE:  MOVWF  FF6
14E0:  MOVLW  12
14E2:  MOVWF  FF7
14E4:  RCALL  147C
....................     nokia_gotoxy (0, 3); 
14E6:  CLRF   0C
14E8:  MOVLW  03
14EA:  MOVWF  0D
14EC:  RCALL  1332
....................     printf (nokia_printchar, "-----------------"); 
14EE:  MOVLW  60
14F0:  MOVWF  FF6
14F2:  MOVLW  12
14F4:  MOVWF  FF7
14F6:  RCALL  147C
....................     nokia_gotoxy (0, 4); 
14F8:  CLRF   0C
14FA:  MOVLW  04
14FC:  MOVWF  0D
14FE:  RCALL  1332
....................     printf (nokia_printchar, "Load image"); 
1500:  MOVLW  72
1502:  MOVWF  FF6
1504:  MOVLW  12
1506:  MOVWF  FF7
1508:  RCALL  147C
....................     nokia_gotoxy (0, 5); 
150A:  CLRF   0C
150C:  MOVLW  05
150E:  MOVWF  0D
1510:  RCALL  1332
....................     printf (nokia_printchar, "string5");  
1512:  MOVLW  7E
1514:  MOVWF  FF6
1516:  MOVLW  12
1518:  MOVWF  FF7
151A:  RCALL  147C
....................     delay_ms(1000); 
151C:  MOVLW  04
151E:  MOVWF  0C
1520:  MOVLW  FA
1522:  MOVWF  0D
1524:  RCALL  12A2
1526:  DECFSZ 0C,F
1528:  BRA    1520
152A:  GOTO   1544 (RETURN)
....................  } 
....................  
....................  VOID main() 
152E:  CLRF   FF8
1530:  BCF    FD0.7
1532:  MOVF   FC1,W
1534:  ANDLW  C0
1536:  IORLW  0F
1538:  MOVWF  FC1
153A:  MOVLW  07
153C:  MOVWF  FB4
153E:  CLRF   0B
1540:  CLRF   0A
....................  { 
....................     INT16 i=0; 
....................     init () ;                                                                                                                                                   
1542:  BRA    149C
....................                     
....................     WHILE (true)                                         
....................     {   
....................    // output_hight(PIN_B1); 
....................      nokia_clean_ddram(); 
1544:  RCALL  1378
....................        nokia_gotoxy(0,0); 
1546:  CLRF   0C
1548:  CLRF   0D
154A:  RCALL  1332
....................        FOR(i=0; i<504; i++) nokia_write_data(logo[i]); 
154C:  CLRF   0B
154E:  CLRF   0A
1550:  MOVF   0B,W
1552:  SUBLW  01
1554:  BNC   1584
1556:  BNZ   155E
1558:  MOVF   0A,W
155A:  SUBLW  F7
155C:  BNC   1584
155E:  MOVFF  0B,03
1562:  MOVF   0A,W
1564:  MOVFF  FF2,0C
1568:  BCF    FF2.7
156A:  MOVFF  0B,FF7
156E:  CALL   0816
1572:  BTFSC  0C.7
1574:  BSF    FF2.7
1576:  MOVWF  0C
1578:  MOVWF  0F
157A:  RCALL  134C
157C:  INCF   0A,F
157E:  BTFSC  FD8.2
1580:  INCF   0B,F
1582:  BRA    1550
....................        delay_ms(2000);         
1584:  MOVLW  08
1586:  MOVWF  0C
1588:  MOVLW  FA
158A:  MOVWF  0D
158C:  RCALL  12A2
158E:  DECFSZ 0C,F
1590:  BRA    1588
....................       nokia_clean_ddram(); 
1592:  RCALL  1378
....................        nokia_gotoxy(0,0); 
1594:  CLRF   0C
1596:  CLRF   0D
1598:  RCALL  1332
....................        FOR(i=0; i<504; i++) nokia_write_data(naruto[i]);              
159A:  CLRF   0B
159C:  CLRF   0A
159E:  MOVF   0B,W
15A0:  SUBLW  01
15A2:  BNC   15D2
15A4:  BNZ   15AC
15A6:  MOVF   0A,W
15A8:  SUBLW  F7
15AA:  BNC   15D2
15AC:  MOVFF  0B,03
15B0:  MOVF   0A,W
15B2:  MOVFF  FF2,0C
15B6:  BCF    FF2.7
15B8:  MOVFF  0B,FF7
15BC:  CALL   0204
15C0:  BTFSC  0C.7
15C2:  BSF    FF2.7
15C4:  MOVWF  0C
15C6:  MOVWF  0F
15C8:  RCALL  134C
15CA:  INCF   0A,F
15CC:  BTFSC  FD8.2
15CE:  INCF   0B,F
15D0:  BRA    159E
....................        delay_ms(2000); 
15D2:  MOVLW  08
15D4:  MOVWF  0C
15D6:  MOVLW  FA
15D8:  MOVWF  0D
15DA:  RCALL  12A2
15DC:  DECFSZ 0C,F
15DE:  BRA    15D6
....................        nokia_clean_ddram(); 
15E0:  RCALL  1378
....................        nokia_gotoxy(0,0); 
15E2:  CLRF   0C
15E4:  CLRF   0D
15E6:  RCALL  1332
....................        FOR(i=0; i<504; i++) nokia_write_data(flap[i]);   
15E8:  CLRF   0B
15EA:  CLRF   0A
15EC:  MOVF   0B,W
15EE:  SUBLW  01
15F0:  BNC   1620
15F2:  BNZ   15FA
15F4:  MOVF   0A,W
15F6:  SUBLW  F7
15F8:  BNC   1620
15FA:  MOVFF  0B,03
15FE:  MOVF   0A,W
1600:  MOVFF  FF2,0C
1604:  BCF    FF2.7
1606:  MOVFF  0B,FF7
160A:  CALL   040A
160E:  BTFSC  0C.7
1610:  BSF    FF2.7
1612:  MOVWF  0C
1614:  MOVWF  0F
1616:  RCALL  134C
1618:  INCF   0A,F
161A:  BTFSC  FD8.2
161C:  INCF   0B,F
161E:  BRA    15EC
....................        delay_ms(2000);  
1620:  MOVLW  08
1622:  MOVWF  0C
1624:  MOVLW  FA
1626:  MOVWF  0D
1628:  RCALL  12A2
162A:  DECFSZ 0C,F
162C:  BRA    1624
....................        nokia_clean_ddram(); 
162E:  RCALL  1378
....................        nokia_gotoxy(0,0); 
1630:  CLRF   0C
1632:  CLRF   0D
1634:  RCALL  1332
....................        FOR(i=0; i<504; i++) nokia_write_data(flap2[i]);   
1636:  CLRF   0B
1638:  CLRF   0A
163A:  MOVF   0B,W
163C:  SUBLW  01
163E:  BNC   166E
1640:  BNZ   1648
1642:  MOVF   0A,W
1644:  SUBLW  F7
1646:  BNC   166E
1648:  MOVFF  0B,03
164C:  MOVF   0A,W
164E:  MOVFF  FF2,0C
1652:  BCF    FF2.7
1654:  MOVFF  0B,FF7
1658:  CALL   0610
165C:  BTFSC  0C.7
165E:  BSF    FF2.7
1660:  MOVWF  0C
1662:  MOVWF  0F
1664:  RCALL  134C
1666:  INCF   0A,F
1668:  BTFSC  FD8.2
166A:  INCF   0B,F
166C:  BRA    163A
....................        delay_ms(2000);  
166E:  MOVLW  08
1670:  MOVWF  0C
1672:  MOVLW  FA
1674:  MOVWF  0D
1676:  RCALL  12A2
1678:  DECFSZ 0C,F
167A:  BRA    1672
....................        nokia_clean_ddram(); 
167C:  RCALL  1378
....................        nokia_gotoxy(0,0); 
167E:  CLRF   0C
1680:  CLRF   0D
1682:  RCALL  1332
....................        FOR(i=0; i<504; i++) nokia_write_data(google[i]);   
1684:  CLRF   0B
1686:  CLRF   0A
1688:  MOVF   0B,W
168A:  SUBLW  01
168C:  BNC   16BC
168E:  BNZ   1696
1690:  MOVF   0A,W
1692:  SUBLW  F7
1694:  BNC   16BC
1696:  MOVFF  0B,03
169A:  MOVF   0A,W
169C:  MOVFF  FF2,0C
16A0:  BCF    FF2.7
16A2:  MOVFF  0B,FF7
16A6:  CALL   0C22
16AA:  BTFSC  0C.7
16AC:  BSF    FF2.7
16AE:  MOVWF  0C
16B0:  MOVWF  0F
16B2:  RCALL  134C
16B4:  INCF   0A,F
16B6:  BTFSC  FD8.2
16B8:  INCF   0B,F
16BA:  BRA    1688
....................        delay_ms(2000);   
16BC:  MOVLW  08
16BE:  MOVWF  0C
16C0:  MOVLW  FA
16C2:  MOVWF  0D
16C4:  RCALL  12A2
16C6:  DECFSZ 0C,F
16C8:  BRA    16C0
....................        nokia_clean_ddram(); 
16CA:  RCALL  1378
....................        nokia_gotoxy(0,0); 
16CC:  CLRF   0C
16CE:  CLRF   0D
16D0:  RCALL  1332
....................        FOR(i=0; i<504; i++) nokia_write_data(apple[i]);   
16D2:  CLRF   0B
16D4:  CLRF   0A
16D6:  MOVF   0B,W
16D8:  SUBLW  01
16DA:  BNC   170A
16DC:  BNZ   16E4
16DE:  MOVF   0A,W
16E0:  SUBLW  F7
16E2:  BNC   170A
16E4:  MOVFF  0B,03
16E8:  MOVF   0A,W
16EA:  MOVFF  FF2,0C
16EE:  BCF    FF2.7
16F0:  MOVFF  0B,FF7
16F4:  CALL   0E28
16F8:  BTFSC  0C.7
16FA:  BSF    FF2.7
16FC:  MOVWF  0C
16FE:  MOVWF  0F
1700:  RCALL  134C
1702:  INCF   0A,F
1704:  BTFSC  FD8.2
1706:  INCF   0B,F
1708:  BRA    16D6
....................        delay_ms(2000);  
170A:  MOVLW  08
170C:  MOVWF  0C
170E:  MOVLW  FA
1710:  MOVWF  0D
1712:  RCALL  12A2
1714:  DECFSZ 0C,F
1716:  BRA    170E
....................         nokia_clean_ddram(); 
1718:  RCALL  1378
....................        nokia_gotoxy(0,0);              
171A:  CLRF   0C
171C:  CLRF   0D
171E:  RCALL  1332
....................        FOR(i=0; i<504; i++) nokia_write_data(facebook[i]);   
1720:  CLRF   0B
1722:  CLRF   0A
1724:  MOVF   0B,W
1726:  SUBLW  01
1728:  BNC   1756
172A:  BNZ   1732
172C:  MOVF   0A,W
172E:  SUBLW  F7
1730:  BNC   1756
1732:  MOVFF  0B,03
1736:  MOVF   0A,W
1738:  MOVFF  FF2,0C
173C:  BCF    FF2.7
173E:  MOVFF  0B,FF7
1742:  RCALL  102E
1744:  BTFSC  0C.7
1746:  BSF    FF2.7
1748:  MOVWF  0C
174A:  MOVWF  0F
174C:  RCALL  134C
174E:  INCF   0A,F
1750:  BTFSC  FD8.2
1752:  INCF   0B,F
1754:  BRA    1724
....................        delay_ms(2000);  
1756:  MOVLW  08
1758:  MOVWF  0C
175A:  MOVLW  FA
175C:  MOVWF  0D
175E:  RCALL  12A2
1760:  DECFSZ 0C,F
1762:  BRA    175A
....................         nokia_clean_ddram(); 
1764:  RCALL  1378
....................        nokia_gotoxy(0,0); 
1766:  CLRF   0C
1768:  CLRF   0D
176A:  RCALL  1332
....................        FOR(i=0; i<504; i++) nokia_write_data(android[i]);   
176C:  CLRF   0B
176E:  CLRF   0A
1770:  MOVF   0B,W
1772:  SUBLW  01
1774:  BNC   17A4
1776:  BNZ   177E
1778:  MOVF   0A,W
177A:  SUBLW  F7
177C:  BNC   17A4
177E:  MOVFF  0B,03
1782:  MOVF   0A,W
1784:  MOVFF  FF2,0C
1788:  BCF    FF2.7
178A:  MOVFF  0B,FF7
178E:  CALL   0A1C
1792:  BTFSC  0C.7
1794:  BSF    FF2.7
1796:  MOVWF  0C
1798:  MOVWF  0F
179A:  RCALL  134C
179C:  INCF   0A,F
179E:  BTFSC  FD8.2
17A0:  INCF   0B,F
17A2:  BRA    1770
....................        delay_ms(2000);             
17A4:  MOVLW  08
17A6:  MOVWF  0C
17A8:  MOVLW  FA
17AA:  MOVWF  0D
17AC:  RCALL  12A2
17AE:  DECFSZ 0C,F
17B0:  BRA    17A8
17B2:  BRA    1544
....................     }     
....................  } 
17B4:  SLEEP 

Configuration Fuses:
   Word  1: CC04   PLL5 CPUDIV1 NOUSBDIV HS FCMEN IESO
   Word  2: 0E38   PUT NOBROWNOUT BORV21 VREGEN NOWDT WDT128
   Word  3: 8700   CCP2C1 PBADEN LPT1OSC MCLR
   Word  4: 00A1   STVREN NOLVP ICSP2 NOXINST NODEBUG
   Word  5: C00F   NOPROTECT NOCPB NOCPD
   Word  6: E00F   NOWRT NOWRTC NOWRTB NOWRTD
   Word  7: 400F   NOEBTR NOEBTRB
